                                      1 ;--------------------------------------------------------
                                      2 ; File Created by SDCC : free open source ANSI-C Compiler
                                      3 ; Version 3.4.1 #9092 (Oct 23 2022) (Mac OS X x86_64)
                                      4 ; This file was generated Sun Oct 23 01:40:18 2022
                                      5 ;--------------------------------------------------------
                                      6 	.module _fsadd
                                      7 	.optsdcc -mstm8
                                      8 	
                                      9 ;--------------------------------------------------------
                                     10 ; Public variables in this module
                                     11 ;--------------------------------------------------------
                                     12 	.globl ___fsadd
                                     13 ;--------------------------------------------------------
                                     14 ; ram data
                                     15 ;--------------------------------------------------------
                                     16 	.area DATA
                                     17 ;--------------------------------------------------------
                                     18 ; ram data
                                     19 ;--------------------------------------------------------
                                     20 	.area INITIALIZED
                                     21 ;--------------------------------------------------------
                                     22 ; absolute external ram data
                                     23 ;--------------------------------------------------------
                                     24 	.area DABS (ABS)
                                     25 ;--------------------------------------------------------
                                     26 ; global & static initialisations
                                     27 ;--------------------------------------------------------
                                     28 	.area HOME
                                     29 	.area GSINIT
                                     30 	.area GSFINAL
                                     31 	.area GSINIT
                                     32 ;--------------------------------------------------------
                                     33 ; Home
                                     34 ;--------------------------------------------------------
                                     35 	.area HOME
                                     36 	.area HOME
                                     37 ;--------------------------------------------------------
                                     38 ; code
                                     39 ;--------------------------------------------------------
                                     40 	.area CODE
                                     41 ;	../_fsadd.c: 170: float __fsadd (float a1, float a2)
                                     42 ;	-----------------------------------------
                                     43 ;	 function __fsadd
                                     44 ;	-----------------------------------------
      000000                         45 ___fsadd:
      000000 52 5C            [ 2]   46 	sub	sp, #92
                                     47 ;	../_fsadd.c: 178: pfl2 = (long _AUTOMEM *)&a2;
      000002 96               [ 1]   48 	ldw	x, sp
      000003 1C 00 63         [ 2]   49 	addw	x, #99
                                     50 ;	../_fsadd.c: 179: exp2 = EXP (*pfl2);
      000006 E6 03            [ 1]   51 	ld	a, (0x3, x)
      000008 6B 5C            [ 1]   52 	ld	(0x5c, sp), a
      00000A E6 02            [ 1]   53 	ld	a, (0x2, x)
      00000C 6B 5B            [ 1]   54 	ld	(0x5b, sp), a
      00000E FE               [ 2]   55 	ldw	x, (x)
      00000F 1F 59            [ 2]   56 	ldw	(0x59, sp), x
      000011 16 5B            [ 2]   57 	ldw	y, (0x5b, sp)
      000013 17 57            [ 2]   58 	ldw	(0x57, sp), y
      000015 16 59            [ 2]   59 	ldw	y, (0x59, sp)
      000017 17 55            [ 2]   60 	ldw	(0x55, sp), y
      000019 16 57            [ 2]   61 	ldw	y, (0x57, sp)
      00001B 1E 55            [ 2]   62 	ldw	x, (0x55, sp)
      00001D A6 17            [ 1]   63 	ld	a, #0x17
      00001F                         64 00221$:
      00001F 54               [ 2]   65 	srlw	x
      000020 90 56            [ 2]   66 	rrcw	y
      000022 4A               [ 1]   67 	dec	a
      000023 26 FA            [ 1]   68 	jrne	00221$
      000025 4F               [ 1]   69 	clr	a
      000026 90 95            [ 1]   70 	ld	yh, a
      000028 5F               [ 1]   71 	clrw	x
      000029 17 04            [ 2]   72 	ldw	(0x04, sp), y
                                     73 ;	../_fsadd.c: 180: mant2 = MANT (*pfl2) << 4;
      00002B 16 57            [ 2]   74 	ldw	y, (0x57, sp)
      00002D 7B 56            [ 1]   75 	ld	a, (0x56, sp)
      00002F A4 7F            [ 1]   76 	and	a, #0x7f
      000031 95               [ 1]   77 	ld	xh, a
      000032 4F               [ 1]   78 	clr	a
      000033 97               [ 1]   79 	ld	xl, a
      000034 58               [ 2]   80 	sllw	x
      000035 99               [ 1]   81 	scf
      000036 56               [ 2]   82 	rrcw	x
      000037 5E               [ 1]   83 	swapw	x
      000038 A6 04            [ 1]   84 	ld	a, #0x04
      00003A                         85 00223$:
      00003A 90 58            [ 2]   86 	sllw	y
      00003C 59               [ 2]   87 	rlcw	x
      00003D 4A               [ 1]   88 	dec	a
      00003E 26 FA            [ 1]   89 	jrne	00223$
      000040 17 0C            [ 2]   90 	ldw	(0x0c, sp), y
      000042 1F 0A            [ 2]   91 	ldw	(0x0a, sp), x
                                     92 ;	../_fsadd.c: 181: if (SIGN (*pfl2))
      000044 7B 55            [ 1]   93 	ld	a, (0x55, sp)
      000046 48               [ 1]   94 	sll	a
      000047 4F               [ 1]   95 	clr	a
      000048 49               [ 1]   96 	rlc	a
      000049 4D               [ 1]   97 	tnz	a
      00004A 27 10            [ 1]   98 	jreq	00102$
                                     99 ;	../_fsadd.c: 182: mant2 = -mant2;
      00004C 16 0C            [ 2]  100 	ldw	y, (0x0c, sp)
      00004E 90 50            [ 2]  101 	negw	y
      000050 4F               [ 1]  102 	clr	a
      000051 12 0B            [ 1]  103 	sbc	a, (0x0b, sp)
      000053 97               [ 1]  104 	ld	xl, a
      000054 4F               [ 1]  105 	clr	a
      000055 12 0A            [ 1]  106 	sbc	a, (0x0a, sp)
      000057 95               [ 1]  107 	ld	xh, a
      000058 17 0C            [ 2]  108 	ldw	(0x0c, sp), y
      00005A 1F 0A            [ 2]  109 	ldw	(0x0a, sp), x
      00005C                        110 00102$:
                                    111 ;	../_fsadd.c: 184: if (!*pfl2)
      00005C 1E 5B            [ 2]  112 	ldw	x, (0x5b, sp)
      00005E 26 0B            [ 1]  113 	jrne	00104$
      000060 1E 59            [ 2]  114 	ldw	x, (0x59, sp)
      000062 26 07            [ 1]  115 	jrne	00104$
                                    116 ;	../_fsadd.c: 185: return (a1);
      000064 1E 61            [ 2]  117 	ldw	x, (0x61, sp)
      000066 16 5F            [ 2]  118 	ldw	y, (0x5f, sp)
      000068 CCr02rBA         [ 2]  119 	jp	00137$
      00006B                        120 00104$:
                                    121 ;	../_fsadd.c: 187: pfl1 = (long _AUTOMEM *)&a1;
      00006B 96               [ 1]  122 	ldw	x, sp
      00006C 1C 00 5F         [ 2]  123 	addw	x, #95
      00006F 1F 08            [ 2]  124 	ldw	(0x08, sp), x
                                    125 ;	../_fsadd.c: 188: exp1 = EXP (*pfl1);
      000071 1E 08            [ 2]  126 	ldw	x, (0x08, sp)
      000073 E6 03            [ 1]  127 	ld	a, (0x3, x)
      000075 6B 54            [ 1]  128 	ld	(0x54, sp), a
      000077 E6 02            [ 1]  129 	ld	a, (0x2, x)
      000079 6B 53            [ 1]  130 	ld	(0x53, sp), a
      00007B FE               [ 2]  131 	ldw	x, (x)
      00007C 1F 51            [ 2]  132 	ldw	(0x51, sp), x
      00007E 16 53            [ 2]  133 	ldw	y, (0x53, sp)
      000080 17 4F            [ 2]  134 	ldw	(0x4f, sp), y
      000082 16 51            [ 2]  135 	ldw	y, (0x51, sp)
      000084 17 4D            [ 2]  136 	ldw	(0x4d, sp), y
      000086 16 4F            [ 2]  137 	ldw	y, (0x4f, sp)
      000088 1E 4D            [ 2]  138 	ldw	x, (0x4d, sp)
      00008A A6 17            [ 1]  139 	ld	a, #0x17
      00008C                        140 00228$:
      00008C 54               [ 2]  141 	srlw	x
      00008D 90 56            [ 2]  142 	rrcw	y
      00008F 4A               [ 1]  143 	dec	a
      000090 26 FA            [ 1]  144 	jrne	00228$
      000092 4F               [ 1]  145 	clr	a
      000093 90 95            [ 1]  146 	ld	yh, a
      000095 5F               [ 1]  147 	clrw	x
      000096 17 4B            [ 2]  148 	ldw	(0x4b, sp), y
                                    149 ;	../_fsadd.c: 189: mant1 = MANT (*pfl1) << 4;
      000098 16 4F            [ 2]  150 	ldw	y, (0x4f, sp)
      00009A 7B 4E            [ 1]  151 	ld	a, (0x4e, sp)
      00009C A4 7F            [ 1]  152 	and	a, #0x7f
      00009E 95               [ 1]  153 	ld	xh, a
      00009F 4F               [ 1]  154 	clr	a
      0000A0 97               [ 1]  155 	ld	xl, a
      0000A1 58               [ 2]  156 	sllw	x
      0000A2 99               [ 1]  157 	scf
      0000A3 56               [ 2]  158 	rrcw	x
      0000A4 5E               [ 1]  159 	swapw	x
      0000A5 A6 04            [ 1]  160 	ld	a, #0x04
      0000A7                        161 00230$:
      0000A7 90 58            [ 2]  162 	sllw	y
      0000A9 59               [ 2]  163 	rlcw	x
      0000AA 4A               [ 1]  164 	dec	a
      0000AB 26 FA            [ 1]  165 	jrne	00230$
      0000AD 17 49            [ 2]  166 	ldw	(0x49, sp), y
      0000AF 1F 47            [ 2]  167 	ldw	(0x47, sp), x
                                    168 ;	../_fsadd.c: 190: if (SIGN(*pfl1))
      0000B1 7B 4D            [ 1]  169 	ld	a, (0x4d, sp)
      0000B3 48               [ 1]  170 	sll	a
      0000B4 4F               [ 1]  171 	clr	a
      0000B5 49               [ 1]  172 	rlc	a
      0000B6 6B 46            [ 1]  173 	ld	(0x46, sp), a
      0000B8 0D 46            [ 1]  174 	tnz	(0x46, sp)
      0000BA 27 20            [ 1]  175 	jreq	00108$
                                    176 ;	../_fsadd.c: 191: if (*pfl1 & 0x80000000)
      0000BC 0D 4D            [ 1]  177 	tnz	(0x4d, sp)
      0000BE 2A 1C            [ 1]  178 	jrpl	00108$
                                    179 ;	../_fsadd.c: 192: mant1 = -mant1;
      0000C0 7B 4A            [ 1]  180 	ld	a, (0x4a, sp)
      0000C2 40               [ 1]  181 	neg	a
      0000C3 6B 45            [ 1]  182 	ld	(0x45, sp), a
      0000C5 4F               [ 1]  183 	clr	a
      0000C6 12 49            [ 1]  184 	sbc	a, (0x49, sp)
      0000C8 6B 44            [ 1]  185 	ld	(0x44, sp), a
      0000CA 4F               [ 1]  186 	clr	a
      0000CB 12 48            [ 1]  187 	sbc	a, (0x48, sp)
      0000CD 6B 43            [ 1]  188 	ld	(0x43, sp), a
      0000CF 4F               [ 1]  189 	clr	a
      0000D0 12 47            [ 1]  190 	sbc	a, (0x47, sp)
      0000D2 6B 47            [ 1]  191 	ld	(0x47, sp), a
      0000D4 16 44            [ 2]  192 	ldw	y, (0x44, sp)
      0000D6 17 49            [ 2]  193 	ldw	(0x49, sp), y
      0000D8 7B 43            [ 1]  194 	ld	a, (0x43, sp)
      0000DA 6B 48            [ 1]  195 	ld	(0x48, sp), a
      0000DC                        196 00108$:
                                    197 ;	../_fsadd.c: 194: if (!*pfl1)
      0000DC 1E 53            [ 2]  198 	ldw	x, (0x53, sp)
      0000DE 26 0B            [ 1]  199 	jrne	00110$
      0000E0 1E 51            [ 2]  200 	ldw	x, (0x51, sp)
      0000E2 26 07            [ 1]  201 	jrne	00110$
                                    202 ;	../_fsadd.c: 195: return (a2);
      0000E4 1E 65            [ 2]  203 	ldw	x, (0x65, sp)
      0000E6 16 63            [ 2]  204 	ldw	y, (0x63, sp)
      0000E8 CCr02rBA         [ 2]  205 	jp	00137$
      0000EB                        206 00110$:
                                    207 ;	../_fsadd.c: 197: expd = exp1 - exp2;
      0000EB 1E 4B            [ 2]  208 	ldw	x, (0x4b, sp)
      0000ED 72 F0 04         [ 2]  209 	subw	x, (0x04, sp)
      0000F0 02               [ 1]  210 	rlwa	x
      0000F1 6B 40            [ 1]  211 	ld	(0x40, sp), a
      0000F3 01               [ 1]  212 	rrwa	x
                                    213 ;	../_fsadd.c: 198: if (expd > 25)
      0000F4 9F               [ 1]  214 	ld	a, xl
      0000F5 02               [ 1]  215 	rlwa	x
      0000F6 7B 40            [ 1]  216 	ld	a, (0x40, sp)
      0000F8 01               [ 1]  217 	rrwa	x
      0000F9 A3 00 19         [ 2]  218 	cpw	x, #0x0019
      0000FC 2D 07            [ 1]  219 	jrsle	00112$
                                    220 ;	../_fsadd.c: 199: return (a1);
      0000FE 1E 61            [ 2]  221 	ldw	x, (0x61, sp)
      000100 16 5F            [ 2]  222 	ldw	y, (0x5f, sp)
      000102 CCr02rBA         [ 2]  223 	jp	00137$
      000105                        224 00112$:
                                    225 ;	../_fsadd.c: 200: if (expd < -25)
      000105 97               [ 1]  226 	ld	xl, a
      000106 02               [ 1]  227 	rlwa	x
      000107 7B 40            [ 1]  228 	ld	a, (0x40, sp)
      000109 01               [ 1]  229 	rrwa	x
      00010A A3 FF E7         [ 2]  230 	cpw	x, #0xffe7
      00010D 2E 07            [ 1]  231 	jrsge	00114$
                                    232 ;	../_fsadd.c: 201: return (a2);
      00010F 1E 65            [ 2]  233 	ldw	x, (0x65, sp)
      000111 16 63            [ 2]  234 	ldw	y, (0x63, sp)
      000113 CCr02rBA         [ 2]  235 	jp	00137$
      000116                        236 00114$:
                                    237 ;	../_fsadd.c: 203: if (expd < 0)
      000116 0D 40            [ 1]  238 	tnz	(0x40, sp)
      000118 2A 27            [ 1]  239 	jrpl	00116$
                                    240 ;	../_fsadd.c: 205: expd = -expd;
      00011A 40               [ 1]  241 	neg	a
      00011B 6B 3F            [ 1]  242 	ld	(0x3f, sp), a
      00011D 4F               [ 1]  243 	clr	a
      00011E 12 40            [ 1]  244 	sbc	a, (0x40, sp)
      000120 6B 3E            [ 1]  245 	ld	(0x3e, sp), a
      000122 16 3E            [ 2]  246 	ldw	y, (0x3e, sp)
      000124 17 02            [ 2]  247 	ldw	(0x02, sp), y
                                    248 ;	../_fsadd.c: 206: exp1 += expd;
      000126 16 4B            [ 2]  249 	ldw	y, (0x4b, sp)
      000128 72 F9 02         [ 2]  250 	addw	y, (0x02, sp)
      00012B 17 4B            [ 2]  251 	ldw	(0x4b, sp), y
                                    252 ;	../_fsadd.c: 207: mant1 >>= expd;
      00012D 16 49            [ 2]  253 	ldw	y, (0x49, sp)
      00012F 1E 47            [ 2]  254 	ldw	x, (0x47, sp)
      000131 7B 03            [ 1]  255 	ld	a, (0x03, sp)
      000133 27 06            [ 1]  256 	jreq	00240$
      000135                        257 00239$:
      000135 57               [ 2]  258 	sraw	x
      000136 90 56            [ 2]  259 	rrcw	y
      000138 4A               [ 1]  260 	dec	a
      000139 26 FA            [ 1]  261 	jrne	00239$
      00013B                        262 00240$:
      00013B 17 49            [ 2]  263 	ldw	(0x49, sp), y
      00013D 1F 47            [ 2]  264 	ldw	(0x47, sp), x
      00013F 20 15            [ 2]  265 	jra	00117$
      000141                        266 00116$:
                                    267 ;	../_fsadd.c: 211: mant2 >>= expd;
      000141 1E 0C            [ 2]  268 	ldw	x, (0x0c, sp)
      000143 16 0A            [ 2]  269 	ldw	y, (0x0a, sp)
      000145 4D               [ 1]  270 	tnz	a
      000146 27 06            [ 1]  271 	jreq	00242$
      000148                        272 00241$:
      000148 90 57            [ 2]  273 	sraw	y
      00014A 56               [ 2]  274 	rrcw	x
      00014B 4A               [ 1]  275 	dec	a
      00014C 26 FA            [ 1]  276 	jrne	00241$
      00014E                        277 00242$:
      00014E 1F 3C            [ 2]  278 	ldw	(0x3c, sp), x
      000150 17 0A            [ 2]  279 	ldw	(0x0a, sp), y
      000152 16 3C            [ 2]  280 	ldw	y, (0x3c, sp)
      000154 17 0C            [ 2]  281 	ldw	(0x0c, sp), y
      000156                        282 00117$:
                                    283 ;	../_fsadd.c: 213: mant1 += mant2;
      000156 16 49            [ 2]  284 	ldw	y, (0x49, sp)
      000158 72 F9 0C         [ 2]  285 	addw	y, (0x0c, sp)
      00015B 7B 48            [ 1]  286 	ld	a, (0x48, sp)
      00015D 19 0B            [ 1]  287 	adc	a, (0x0b, sp)
      00015F 97               [ 1]  288 	ld	xl, a
      000160 7B 47            [ 1]  289 	ld	a, (0x47, sp)
      000162 19 0A            [ 1]  290 	adc	a, (0x0a, sp)
      000164 95               [ 1]  291 	ld	xh, a
      000165 17 10            [ 2]  292 	ldw	(0x10, sp), y
      000167 1F 0E            [ 2]  293 	ldw	(0x0e, sp), x
                                    294 ;	../_fsadd.c: 215: sign = false;
      000169 0F 01            [ 1]  295 	clr	(0x01, sp)
                                    296 ;	../_fsadd.c: 217: if (mant1 < 0)
      00016B 0D 0E            [ 1]  297 	tnz	(0x0e, sp)
      00016D 2A 16            [ 1]  298 	jrpl	00121$
                                    299 ;	../_fsadd.c: 219: mant1 = -mant1;
      00016F 16 10            [ 2]  300 	ldw	y, (0x10, sp)
      000171 90 50            [ 2]  301 	negw	y
      000173 4F               [ 1]  302 	clr	a
      000174 12 0F            [ 1]  303 	sbc	a, (0x0f, sp)
      000176 97               [ 1]  304 	ld	xl, a
      000177 4F               [ 1]  305 	clr	a
      000178 12 0E            [ 1]  306 	sbc	a, (0x0e, sp)
      00017A 95               [ 1]  307 	ld	xh, a
      00017B 17 10            [ 2]  308 	ldw	(0x10, sp), y
      00017D 1F 0E            [ 2]  309 	ldw	(0x0e, sp), x
                                    310 ;	../_fsadd.c: 220: sign = true;
      00017F A6 01            [ 1]  311 	ld	a, #0x01
      000181 6B 01            [ 1]  312 	ld	(0x01, sp), a
      000183 20 0E            [ 2]  313 	jra	00154$
      000185                        314 00121$:
                                    315 ;	../_fsadd.c: 222: else if (!mant1)
      000185 1E 10            [ 2]  316 	ldw	x, (0x10, sp)
      000187 26 0A            [ 1]  317 	jrne	00154$
      000189 1E 0E            [ 2]  318 	ldw	x, (0x0e, sp)
      00018B 26 06            [ 1]  319 	jrne	00154$
                                    320 ;	../_fsadd.c: 223: return (0);
      00018D 5F               [ 1]  321 	clrw	x
      00018E 90 5F            [ 1]  322 	clrw	y
      000190 CCr02rBA         [ 2]  323 	jp	00137$
                                    324 ;	../_fsadd.c: 226: while (mant1 < (HIDDEN<<4)) {
      000193                        325 00154$:
      000193 16 4B            [ 2]  326 	ldw	y, (0x4b, sp)
      000195 17 38            [ 2]  327 	ldw	(0x38, sp), y
      000197                        328 00123$:
      000197 16 10            [ 2]  329 	ldw	y, (0x10, sp)
      000199 1E 0E            [ 2]  330 	ldw	x, (0x0e, sp)
      00019B 90 A3 00 00      [ 2]  331 	cpw	y, #0x0000
      00019F 9F               [ 1]  332 	ld	a, xl
      0001A0 A2 00            [ 1]  333 	sbc	a, #0x00
      0001A2 9E               [ 1]  334 	ld	a, xh
      0001A3 A2 08            [ 1]  335 	sbc	a, #0x08
      0001A5 24 1C            [ 1]  336 	jrnc	00157$
                                    337 ;	../_fsadd.c: 227: mant1 <<= 1;
      0001A7 16 0E            [ 2]  338 	ldw	y, (0x0e, sp)
      0001A9 17 34            [ 2]  339 	ldw	(0x34, sp), y
      0001AB 1E 10            [ 2]  340 	ldw	x, (0x10, sp)
      0001AD 58               [ 2]  341 	sllw	x
      0001AE 09 35            [ 1]  342 	rlc	(0x35, sp)
      0001B0 09 34            [ 1]  343 	rlc	(0x34, sp)
      0001B2 1F 36            [ 2]  344 	ldw	(0x36, sp), x
      0001B4 16 36            [ 2]  345 	ldw	y, (0x36, sp)
      0001B6 17 10            [ 2]  346 	ldw	(0x10, sp), y
      0001B8 16 34            [ 2]  347 	ldw	y, (0x34, sp)
      0001BA 17 0E            [ 2]  348 	ldw	(0x0e, sp), y
                                    349 ;	../_fsadd.c: 228: exp1--;
      0001BC 1E 38            [ 2]  350 	ldw	x, (0x38, sp)
      0001BE 5A               [ 2]  351 	decw	x
      0001BF 1F 38            [ 2]  352 	ldw	(0x38, sp), x
      0001C1 20 D4            [ 2]  353 	jra	00123$
                                    354 ;	../_fsadd.c: 232: while (mant1 & 0xf0000000) {
      0001C3                        355 00157$:
      0001C3 16 38            [ 2]  356 	ldw	y, (0x38, sp)
      0001C5 17 06            [ 2]  357 	ldw	(0x06, sp), y
      0001C7                        358 00128$:
      0001C7 16 10            [ 2]  359 	ldw	y, (0x10, sp)
      0001C9 17 32            [ 2]  360 	ldw	(0x32, sp), y
      0001CB 1E 0E            [ 2]  361 	ldw	x, (0x0e, sp)
      0001CD 9E               [ 1]  362 	ld	a, xh
      0001CE A5 F0            [ 1]  363 	bcp	a, #0xf0
      0001D0 27 3B            [ 1]  364 	jreq	00163$
                                    365 ;	../_fsadd.c: 233: if (mant1&1)
      0001D2 7B 11            [ 1]  366 	ld	a, (0x11, sp)
      0001D4 44               [ 1]  367 	srl	a
      0001D5 24 14            [ 1]  368 	jrnc	00127$
                                    369 ;	../_fsadd.c: 234: mant1 += 2;
      0001D7 16 10            [ 2]  370 	ldw	y, (0x10, sp)
      0001D9 72 A9 00 02      [ 2]  371 	addw	y, #0x0002
      0001DD 7B 0F            [ 1]  372 	ld	a, (0x0f, sp)
      0001DF A9 00            [ 1]  373 	adc	a, #0x00
      0001E1 97               [ 1]  374 	ld	xl, a
      0001E2 7B 0E            [ 1]  375 	ld	a, (0x0e, sp)
      0001E4 A9 00            [ 1]  376 	adc	a, #0x00
      0001E6 95               [ 1]  377 	ld	xh, a
      0001E7 17 10            [ 2]  378 	ldw	(0x10, sp), y
      0001E9 1F 0E            [ 2]  379 	ldw	(0x0e, sp), x
      0001EB                        380 00127$:
                                    381 ;	../_fsadd.c: 235: mant1 >>= 1;
      0001EB 16 0E            [ 2]  382 	ldw	y, (0x0e, sp)
      0001ED 17 2C            [ 2]  383 	ldw	(0x2c, sp), y
      0001EF 7B 11            [ 1]  384 	ld	a, (0x11, sp)
      0001F1 97               [ 1]  385 	ld	xl, a
      0001F2 7B 10            [ 1]  386 	ld	a, (0x10, sp)
      0001F4 07 2C            [ 1]  387 	sra	(0x2c, sp)
      0001F6 06 2D            [ 1]  388 	rrc	(0x2d, sp)
      0001F8 46               [ 1]  389 	rrc	a
      0001F9 41               [ 1]  390 	exg	a, xl
      0001FA 46               [ 1]  391 	rrc	a
      0001FB 41               [ 1]  392 	exg	a, xl
      0001FC 41               [ 1]  393 	exg	a, xl
      0001FD 6B 11            [ 1]  394 	ld	(0x11, sp), a
      0001FF 41               [ 1]  395 	exg	a, xl
      000200 6B 10            [ 1]  396 	ld	(0x10, sp), a
      000202 16 2C            [ 2]  397 	ldw	y, (0x2c, sp)
      000204 17 0E            [ 2]  398 	ldw	(0x0e, sp), y
                                    399 ;	../_fsadd.c: 236: exp1++;
      000206 1E 06            [ 2]  400 	ldw	x, (0x06, sp)
      000208 5C               [ 2]  401 	incw	x
      000209 1F 06            [ 2]  402 	ldw	(0x06, sp), x
      00020B 20 BA            [ 2]  403 	jra	00128$
      00020D                        404 00163$:
      00020D 16 06            [ 2]  405 	ldw	y, (0x06, sp)
      00020F 17 2A            [ 2]  406 	ldw	(0x2a, sp), y
                                    407 ;	../_fsadd.c: 240: mant1 &= ~(HIDDEN<<4);
      000211 16 32            [ 2]  408 	ldw	y, (0x32, sp)
      000213 9E               [ 1]  409 	ld	a, xh
      000214 A4 F7            [ 1]  410 	and	a, #0xf7
      000216 95               [ 1]  411 	ld	xh, a
      000217 17 28            [ 2]  412 	ldw	(0x28, sp), y
      000219 1F 26            [ 2]  413 	ldw	(0x26, sp), x
                                    414 ;	../_fsadd.c: 243: if (exp1 >= 0x100)
      00021B 1E 06            [ 2]  415 	ldw	x, (0x06, sp)
      00021D A3 01 00         [ 2]  416 	cpw	x, #0x0100
      000220 2F 1D            [ 1]  417 	jrslt	00135$
                                    418 ;	../_fsadd.c: 244: *pfl1 = (sign ? (SIGNBIT | __INFINITY) : __INFINITY);
      000222 0D 01            [ 1]  419 	tnz	(0x01, sp)
      000224 27 09            [ 1]  420 	jreq	00139$
      000226 90 5F            [ 1]  421 	clrw	y
      000228 AE FF 80         [ 2]  422 	ldw	x, #0xff80
      00022B 1F 22            [ 2]  423 	ldw	(0x22, sp), x
      00022D 20 07            [ 2]  424 	jra	00140$
      00022F                        425 00139$:
      00022F 90 5F            [ 1]  426 	clrw	y
      000231 AE 7F 80         [ 2]  427 	ldw	x, #0x7f80
      000234 1F 22            [ 2]  428 	ldw	(0x22, sp), x
      000236                        429 00140$:
      000236 1E 08            [ 2]  430 	ldw	x, (0x08, sp)
      000238 EF 02            [ 2]  431 	ldw	(0x2, x), y
      00023A 16 22            [ 2]  432 	ldw	y, (0x22, sp)
      00023C FF               [ 2]  433 	ldw	(x), y
      00023D 20 77            [ 2]  434 	jra	00136$
      00023F                        435 00135$:
                                    436 ;	../_fsadd.c: 245: else if (exp1 < 0)
      00023F 0D 06            [ 1]  437 	tnz	(0x06, sp)
      000241 2A 0B            [ 1]  438 	jrpl	00132$
                                    439 ;	../_fsadd.c: 246: *pfl1 = 0;
      000243 1E 08            [ 2]  440 	ldw	x, (0x08, sp)
      000245 6F 03            [ 1]  441 	clr	(0x3, x)
      000247 6F 02            [ 1]  442 	clr	(0x2, x)
      000249 6F 01            [ 1]  443 	clr	(0x1, x)
      00024B 7F               [ 1]  444 	clr	(x)
      00024C 20 68            [ 2]  445 	jra	00136$
      00024E                        446 00132$:
                                    447 ;	../_fsadd.c: 248: *pfl1 = PACK (sign ? SIGNBIT : 0 , exp1, mant1>>4);
      00024E 0D 01            [ 1]  448 	tnz	(0x01, sp)
      000250 27 0A            [ 1]  449 	jreq	00141$
      000252 5F               [ 1]  450 	clrw	x
      000253 1F 20            [ 2]  451 	ldw	(0x20, sp), x
      000255 AE 80 00         [ 2]  452 	ldw	x, #0x8000
      000258 1F 1E            [ 2]  453 	ldw	(0x1e, sp), x
      00025A 20 05            [ 2]  454 	jra	00142$
      00025C                        455 00141$:
      00025C 5F               [ 1]  456 	clrw	x
      00025D 1F 20            [ 2]  457 	ldw	(0x20, sp), x
      00025F 1F 1E            [ 2]  458 	ldw	(0x1e, sp), x
      000261                        459 00142$:
      000261 16 2A            [ 2]  460 	ldw	y, (0x2a, sp)
      000263 5F               [ 1]  461 	clrw	x
      000264 90 5D            [ 2]  462 	tnzw	y
      000266 2A 01            [ 1]  463 	jrpl	00253$
      000268 5A               [ 2]  464 	decw	x
      000269                        465 00253$:
      000269 A6 17            [ 1]  466 	ld	a, #0x17
      00026B                        467 00254$:
      00026B 90 58            [ 2]  468 	sllw	y
      00026D 59               [ 2]  469 	rlcw	x
      00026E 4A               [ 1]  470 	dec	a
      00026F 26 FA            [ 1]  471 	jrne	00254$
      000271 90 9F            [ 1]  472 	ld	a, yl
      000273 1A 21            [ 1]  473 	or	a, (0x21, sp)
      000275 6B 1D            [ 1]  474 	ld	(0x1d, sp), a
      000277 90 9E            [ 1]  475 	ld	a, yh
      000279 1A 20            [ 1]  476 	or	a, (0x20, sp)
      00027B 6B 1C            [ 1]  477 	ld	(0x1c, sp), a
      00027D 9F               [ 1]  478 	ld	a, xl
      00027E 1A 1F            [ 1]  479 	or	a, (0x1f, sp)
      000280 6B 1B            [ 1]  480 	ld	(0x1b, sp), a
      000282 9E               [ 1]  481 	ld	a, xh
      000283 1A 1E            [ 1]  482 	or	a, (0x1e, sp)
      000285 16 28            [ 2]  483 	ldw	y, (0x28, sp)
      000287 1E 26            [ 2]  484 	ldw	x, (0x26, sp)
      000289 57               [ 2]  485 	sraw	x
      00028A 90 56            [ 2]  486 	rrcw	y
      00028C 57               [ 2]  487 	sraw	x
      00028D 90 56            [ 2]  488 	rrcw	y
      00028F 57               [ 2]  489 	sraw	x
      000290 90 56            [ 2]  490 	rrcw	y
      000292 57               [ 2]  491 	sraw	x
      000293 90 56            [ 2]  492 	rrcw	y
      000295 17 18            [ 2]  493 	ldw	(0x18, sp), y
      000297 1F 16            [ 2]  494 	ldw	(0x16, sp), x
      000299 1A 16            [ 1]  495 	or	a, (0x16, sp)
      00029B 6B 12            [ 1]  496 	ld	(0x12, sp), a
      00029D 7B 1D            [ 1]  497 	ld	a, (0x1d, sp)
      00029F 1A 19            [ 1]  498 	or	a, (0x19, sp)
      0002A1 90 97            [ 1]  499 	ld	yl, a
      0002A3 7B 1C            [ 1]  500 	ld	a, (0x1c, sp)
      0002A5 1A 18            [ 1]  501 	or	a, (0x18, sp)
      0002A7 90 95            [ 1]  502 	ld	yh, a
      0002A9 7B 1B            [ 1]  503 	ld	a, (0x1b, sp)
      0002AB 1A 17            [ 1]  504 	or	a, (0x17, sp)
      0002AD 6B 13            [ 1]  505 	ld	(0x13, sp), a
      0002AF 1E 08            [ 2]  506 	ldw	x, (0x08, sp)
      0002B1 EF 02            [ 2]  507 	ldw	(0x2, x), y
      0002B3 16 12            [ 2]  508 	ldw	y, (0x12, sp)
      0002B5 FF               [ 2]  509 	ldw	(x), y
      0002B6                        510 00136$:
                                    511 ;	../_fsadd.c: 249: return (a1);
      0002B6 1E 61            [ 2]  512 	ldw	x, (0x61, sp)
      0002B8 16 5F            [ 2]  513 	ldw	y, (0x5f, sp)
      0002BA                        514 00137$:
      0002BA 5B 5C            [ 2]  515 	addw	sp, #92
      0002BC 81               [ 4]  516 	ret
                                    517 	.area CODE
                                    518 	.area INITIALIZER
                                    519 	.area CABS (ABS)
