                                      1 ;--------------------------------------------------------
                                      2 ; File Created by SDCC : free open source ANSI-C Compiler
                                      3 ; Version 3.4.1 #9092 (Oct 23 2022) (Mac OS X x86_64)
                                      4 ; This file was generated Sun Oct 23 01:40:50 2022
                                      5 ;--------------------------------------------------------
                                      6 	.module _rrslonglong
                                      7 	.optsdcc -mstm8
                                      8 	
                                      9 ;--------------------------------------------------------
                                     10 ; Public variables in this module
                                     11 ;--------------------------------------------------------
                                     12 	.globl __rrslonglong
                                     13 ;--------------------------------------------------------
                                     14 ; ram data
                                     15 ;--------------------------------------------------------
                                     16 	.area DATA
                                     17 ;--------------------------------------------------------
                                     18 ; ram data
                                     19 ;--------------------------------------------------------
                                     20 	.area INITIALIZED
                                     21 ;--------------------------------------------------------
                                     22 ; absolute external ram data
                                     23 ;--------------------------------------------------------
                                     24 	.area DABS (ABS)
                                     25 ;--------------------------------------------------------
                                     26 ; global & static initialisations
                                     27 ;--------------------------------------------------------
                                     28 	.area HOME
                                     29 	.area GSINIT
                                     30 	.area GSFINAL
                                     31 	.area GSINIT
                                     32 ;--------------------------------------------------------
                                     33 ; Home
                                     34 ;--------------------------------------------------------
                                     35 	.area HOME
                                     36 	.area HOME
                                     37 ;--------------------------------------------------------
                                     38 ; code
                                     39 ;--------------------------------------------------------
                                     40 	.area CODE
                                     41 ;	../_rrslonglong.c: 35: long long _rrslonglong(long long l, signed char s)
                                     42 ;	-----------------------------------------
                                     43 ;	 function _rrslonglong
                                     44 ;	-----------------------------------------
      000000                         45 __rrslonglong:
      000000 52 31            [ 2]   46 	sub	sp, #49
                                     47 ;	../_rrslonglong.c: 37: int32_t *top = (uint32_t *)((char *)(&l) + 4);
      000002 90 96            [ 1]   48 	ldw	y, sp
      000004 72 A9 00 34      [ 2]   49 	addw	y, #52
      000008 93               [ 1]   50 	ldw	x, y
      000009 1C 00 04         [ 2]   51 	addw	x, #0x0004
      00000C 1F 07            [ 2]   52 	ldw	(0x07, sp), x
                                     53 ;	../_rrslonglong.c: 38: uint16_t *middle = (uint16_t *)((char *)(&l) + 3);
      00000E 93               [ 1]   54 	ldw	x, y
      00000F 1C 00 03         [ 2]   55 	addw	x, #0x0003
      000012 1F 05            [ 2]   56 	ldw	(0x05, sp), x
                                     57 ;	../_rrslonglong.c: 39: uint32_t *bottom = (uint32_t *)(&l);
      000014 93               [ 1]   58 	ldw	x, y
      000015 1F 03            [ 2]   59 	ldw	(0x03, sp), x
                                     60 ;	../_rrslonglong.c: 40: uint16_t *b = (uint16_t *)(&l);
      000017 17 01            [ 2]   61 	ldw	(0x01, sp), y
                                     62 ;	../_rrslonglong.c: 50: (*bottom) >>= s;
      000019 7B 3E            [ 1]   63 	ld	a, (0x3e, sp)
      00001B 6B 31            [ 1]   64 	ld	(0x31, sp), a
      00001D                         65 00103$:
                                     66 ;	../_rrslonglong.c: 42: for(;s >= 16; s-= 16)
      00001D 7B 31            [ 1]   67 	ld	a, (0x31, sp)
      00001F A1 10            [ 1]   68 	cp	a, #0x10
      000021 2F 46            [ 1]   69 	jrslt	00101$
                                     70 ;	../_rrslonglong.c: 44: b[0] = b[1];
      000023 1E 01            [ 2]   71 	ldw	x, (0x01, sp)
      000025 5C               [ 2]   72 	incw	x
      000026 5C               [ 2]   73 	incw	x
      000027 1F 2F            [ 2]   74 	ldw	(0x2f, sp), x
      000029 1E 2F            [ 2]   75 	ldw	x, (0x2f, sp)
      00002B FE               [ 2]   76 	ldw	x, (x)
      00002C 16 01            [ 2]   77 	ldw	y, (0x01, sp)
      00002E 90 FF            [ 2]   78 	ldw	(y), x
                                     79 ;	../_rrslonglong.c: 45: b[1] = b[2];
      000030 1E 01            [ 2]   80 	ldw	x, (0x01, sp)
      000032 1C 00 04         [ 2]   81 	addw	x, #0x0004
      000035 1F 2D            [ 2]   82 	ldw	(0x2d, sp), x
      000037 1E 2D            [ 2]   83 	ldw	x, (0x2d, sp)
      000039 FE               [ 2]   84 	ldw	x, (x)
      00003A 16 2F            [ 2]   85 	ldw	y, (0x2f, sp)
      00003C 90 FF            [ 2]   86 	ldw	(y), x
                                     87 ;	../_rrslonglong.c: 46: b[2] = b[3];
      00003E 1E 01            [ 2]   88 	ldw	x, (0x01, sp)
      000040 1C 00 06         [ 2]   89 	addw	x, #0x0006
      000043 1F 2B            [ 2]   90 	ldw	(0x2b, sp), x
      000045 1E 2B            [ 2]   91 	ldw	x, (0x2b, sp)
      000047 FE               [ 2]   92 	ldw	x, (x)
      000048 16 2D            [ 2]   93 	ldw	y, (0x2d, sp)
      00004A 90 FF            [ 2]   94 	ldw	(y), x
                                     95 ;	../_rrslonglong.c: 47: b[3] = (b[3] & 0x8000) ? 0xffff : 0x000000;
      00004C 1E 2B            [ 2]   96 	ldw	x, (0x2b, sp)
      00004E FE               [ 2]   97 	ldw	x, (x)
      00004F 5D               [ 2]   98 	tnzw	x
      000050 2A 07            [ 1]   99 	jrpl	00107$
      000052 AE FF FF         [ 2]  100 	ldw	x, #0xffff
      000055 1F 29            [ 2]  101 	ldw	(0x29, sp), x
      000057 20 03            [ 2]  102 	jra	00108$
      000059                        103 00107$:
      000059 5F               [ 1]  104 	clrw	x
      00005A 1F 29            [ 2]  105 	ldw	(0x29, sp), x
      00005C                        106 00108$:
      00005C 1E 2B            [ 2]  107 	ldw	x, (0x2b, sp)
      00005E 16 29            [ 2]  108 	ldw	y, (0x29, sp)
      000060 FF               [ 2]  109 	ldw	(x), y
                                    110 ;	../_rrslonglong.c: 42: for(;s >= 16; s-= 16)
      000061 7B 31            [ 1]  111 	ld	a, (0x31, sp)
      000063 A0 10            [ 1]  112 	sub	a, #0x10
      000065 6B 31            [ 1]  113 	ld	(0x31, sp), a
      000067 20 B4            [ 2]  114 	jra	00103$
      000069                        115 00101$:
                                    116 ;	../_rrslonglong.c: 50: (*bottom) >>= s;
      000069 1E 03            [ 2]  117 	ldw	x, (0x03, sp)
      00006B E6 03            [ 1]  118 	ld	a, (0x3, x)
      00006D 90 97            [ 1]  119 	ld	yl, a
      00006F E6 02            [ 1]  120 	ld	a, (0x2, x)
      000071 90 95            [ 1]  121 	ld	yh, a
      000073 FE               [ 2]  122 	ldw	x, (x)
      000074 7B 31            [ 1]  123 	ld	a, (0x31, sp)
      000076 27 06            [ 1]  124 	jreq	00125$
      000078                        125 00124$:
      000078 54               [ 2]  126 	srlw	x
      000079 90 56            [ 2]  127 	rrcw	y
      00007B 4A               [ 1]  128 	dec	a
      00007C 26 FA            [ 1]  129 	jrne	00124$
      00007E                        130 00125$:
      00007E 17 27            [ 2]  131 	ldw	(0x27, sp), y
      000080 1F 25            [ 2]  132 	ldw	(0x25, sp), x
      000082 1E 03            [ 2]  133 	ldw	x, (0x03, sp)
      000084 16 27            [ 2]  134 	ldw	y, (0x27, sp)
      000086 EF 02            [ 2]  135 	ldw	(0x2, x), y
      000088 16 25            [ 2]  136 	ldw	y, (0x25, sp)
      00008A FF               [ 2]  137 	ldw	(x), y
                                    138 ;	../_rrslonglong.c: 51: (*bottom) |= ((uint32_t)((*middle) >> s) << 16);
      00008B 1E 05            [ 2]  139 	ldw	x, (0x05, sp)
      00008D FE               [ 2]  140 	ldw	x, (x)
      00008E 7B 31            [ 1]  141 	ld	a, (0x31, sp)
      000090 27 04            [ 1]  142 	jreq	00127$
      000092                        143 00126$:
      000092 54               [ 2]  144 	srlw	x
      000093 4A               [ 1]  145 	dec	a
      000094 26 FC            [ 1]  146 	jrne	00126$
      000096                        147 00127$:
      000096 90 5F            [ 1]  148 	clrw	y
      000098 A6 10            [ 1]  149 	ld	a, #0x10
      00009A                        150 00128$:
      00009A 58               [ 2]  151 	sllw	x
      00009B 90 59            [ 2]  152 	rlcw	y
      00009D 4A               [ 1]  153 	dec	a
      00009E 26 FA            [ 1]  154 	jrne	00128$
      0000A0 90 02            [ 1]  155 	rlwa	y
      0000A2 6B 21            [ 1]  156 	ld	(0x21, sp), a
      0000A4 90 01            [ 1]  157 	rrwa	y
      0000A6 90 9F            [ 1]  158 	ld	a, yl
      0000A8 1A 26            [ 1]  159 	or	a, (0x26, sp)
      0000AA 6B 1E            [ 1]  160 	ld	(0x1e, sp), a
      0000AC 9F               [ 1]  161 	ld	a, xl
      0000AD 1A 28            [ 1]  162 	or	a, (0x28, sp)
      0000AF 90 97            [ 1]  163 	ld	yl, a
      0000B1 9E               [ 1]  164 	ld	a, xh
      0000B2 1A 27            [ 1]  165 	or	a, (0x27, sp)
      0000B4 90 95            [ 1]  166 	ld	yh, a
      0000B6 7B 21            [ 1]  167 	ld	a, (0x21, sp)
      0000B8 1A 25            [ 1]  168 	or	a, (0x25, sp)
      0000BA 6B 1D            [ 1]  169 	ld	(0x1d, sp), a
      0000BC 1E 03            [ 2]  170 	ldw	x, (0x03, sp)
      0000BE EF 02            [ 2]  171 	ldw	(0x2, x), y
      0000C0 16 1D            [ 2]  172 	ldw	y, (0x1d, sp)
      0000C2 FF               [ 2]  173 	ldw	(x), y
                                    174 ;	../_rrslonglong.c: 52: (*top) |= (((*middle) & 0xffff0000) >> s);
      0000C3 1E 07            [ 2]  175 	ldw	x, (0x07, sp)
      0000C5 E6 03            [ 1]  176 	ld	a, (0x3, x)
      0000C7 6B 1C            [ 1]  177 	ld	(0x1c, sp), a
      0000C9 E6 02            [ 1]  178 	ld	a, (0x2, x)
      0000CB 90 95            [ 1]  179 	ld	yh, a
      0000CD FE               [ 2]  180 	ldw	x, (x)
      0000CE 1F 19            [ 2]  181 	ldw	(0x19, sp), x
      0000D0 1E 05            [ 2]  182 	ldw	x, (0x05, sp)
      0000D2 FE               [ 2]  183 	ldw	x, (x)
      0000D3 1F 17            [ 2]  184 	ldw	(0x17, sp), x
      0000D5 5F               [ 1]  185 	clrw	x
      0000D6 0F 14            [ 1]  186 	clr	(0x14, sp)
      0000D8 4F               [ 1]  187 	clr	a
      0000D9 6B 0F            [ 1]  188 	ld	(0x0f, sp), a
      0000DB 7B 14            [ 1]  189 	ld	a, (0x14, sp)
      0000DD 6B 10            [ 1]  190 	ld	(0x10, sp), a
      0000DF 7B 31            [ 1]  191 	ld	a, (0x31, sp)
      0000E1 27 08            [ 1]  192 	jreq	00131$
      0000E3                        193 00130$:
      0000E3 54               [ 2]  194 	srlw	x
      0000E4 06 0F            [ 1]  195 	rrc	(0x0f, sp)
      0000E6 06 10            [ 1]  196 	rrc	(0x10, sp)
      0000E8 4A               [ 1]  197 	dec	a
      0000E9 26 F8            [ 1]  198 	jrne	00130$
      0000EB                        199 00131$:
      0000EB 1F 0D            [ 2]  200 	ldw	(0x0d, sp), x
      0000ED 7B 1C            [ 1]  201 	ld	a, (0x1c, sp)
      0000EF 1E 19            [ 2]  202 	ldw	x, (0x19, sp)
      0000F1 1A 10            [ 1]  203 	or	a, (0x10, sp)
      0000F3 90 97            [ 1]  204 	ld	yl, a
      0000F5 90 9E            [ 1]  205 	ld	a, yh
      0000F7 1A 0F            [ 1]  206 	or	a, (0x0f, sp)
      0000F9 90 95            [ 1]  207 	ld	yh, a
      0000FB 9F               [ 1]  208 	ld	a, xl
      0000FC 1A 0E            [ 1]  209 	or	a, (0x0e, sp)
      0000FE 6B 0A            [ 1]  210 	ld	(0x0a, sp), a
      000100 9E               [ 1]  211 	ld	a, xh
      000101 1A 0D            [ 1]  212 	or	a, (0x0d, sp)
      000103 6B 09            [ 1]  213 	ld	(0x09, sp), a
      000105 1E 07            [ 2]  214 	ldw	x, (0x07, sp)
      000107 EF 02            [ 2]  215 	ldw	(0x2, x), y
      000109 16 09            [ 2]  216 	ldw	y, (0x09, sp)
      00010B FF               [ 2]  217 	ldw	(x), y
                                    218 ;	../_rrslonglong.c: 54: return(l);
      00010C 1E 34            [ 2]  219 	ldw	x, (0x34, sp)
      00010E 16 3C            [ 2]  220 	ldw	y, (0x3c, sp)
      000110 EF 06            [ 2]  221 	ldw	(#6, x), y
      000112 16 3A            [ 2]  222 	ldw	y, (0x3a, sp)
      000114 EF 04            [ 2]  223 	ldw	(#4, x), y
      000116 16 38            [ 2]  224 	ldw	y, (0x38, sp)
      000118 EF 02            [ 2]  225 	ldw	(#2, x), y
      00011A 16 36            [ 2]  226 	ldw	y, (0x36, sp)
      00011C FF               [ 2]  227 	ldw	(x), y
      00011D 5B 31            [ 2]  228 	addw	sp, #49
      00011F 81               [ 4]  229 	ret
                                    230 	.area CODE
                                    231 	.area INITIALIZER
                                    232 	.area CABS (ABS)
