                                      1 ;--------------------------------------------------------
                                      2 ; File Created by SDCC : free open source ANSI-C Compiler
                                      3 ; Version 3.4.1 #9092 (Oct 23 2022) (Mac OS X x86_64)
                                      4 ; This file was generated Sun Oct 23 01:41:12 2022
                                      5 ;--------------------------------------------------------
                                      6 	.module printf_large
                                      7 	.optsdcc -mstm8
                                      8 	
                                      9 ;--------------------------------------------------------
                                     10 ; Public variables in this module
                                     11 ;--------------------------------------------------------
                                     12 	.globl _strlen
                                     13 	.globl __print_format
                                     14 ;--------------------------------------------------------
                                     15 ; ram data
                                     16 ;--------------------------------------------------------
                                     17 	.area DATA
                                     18 ;--------------------------------------------------------
                                     19 ; ram data
                                     20 ;--------------------------------------------------------
                                     21 	.area INITIALIZED
                                     22 ;--------------------------------------------------------
                                     23 ; absolute external ram data
                                     24 ;--------------------------------------------------------
                                     25 	.area DABS (ABS)
                                     26 ;--------------------------------------------------------
                                     27 ; global & static initialisations
                                     28 ;--------------------------------------------------------
                                     29 	.area HOME
                                     30 	.area GSINIT
                                     31 	.area GSFINAL
                                     32 	.area GSINIT
                                     33 ;--------------------------------------------------------
                                     34 ; Home
                                     35 ;--------------------------------------------------------
                                     36 	.area HOME
                                     37 	.area HOME
                                     38 ;--------------------------------------------------------
                                     39 ; code
                                     40 ;--------------------------------------------------------
                                     41 	.area CODE
                                     42 ;	../printf_large.c: 116: output_digit (unsigned char n, bool lower_case, pfn_outputchar output_char, void* p)
                                     43 ;	-----------------------------------------
                                     44 ;	 function output_digit
                                     45 ;	-----------------------------------------
      000000                         46 _output_digit:
                                     47 ;	../printf_large.c: 118: register unsigned char c = n + (unsigned char)'0';
      000000 7B 03            [ 1]   48 	ld	a, (0x03, sp)
      000002 AB 30            [ 1]   49 	add	a, #0x30
                                     50 ;	../printf_large.c: 120: if (c > (unsigned char)'9')
      000004 A1 39            [ 1]   51 	cp	a, #0x39
      000006 23 08            [ 2]   52 	jrule	00104$
                                     53 ;	../printf_large.c: 122: c += (unsigned char)('A' - '0' - 10);
      000008 AB 07            [ 1]   54 	add	a, #0x07
                                     55 ;	../printf_large.c: 123: if (lower_case)
      00000A 0D 04            [ 1]   56 	tnz	(0x04, sp)
      00000C 27 02            [ 1]   57 	jreq	00104$
                                     58 ;	../printf_large.c: 124: c += (unsigned char)('a' - 'A');
      00000E AB 20            [ 1]   59 	add	a, #0x20
      000010                         60 00104$:
                                     61 ;	../printf_large.c: 126: output_char( c, p );
      000010 1E 07            [ 2]   62 	ldw	x, (0x07, sp)
      000012 89               [ 2]   63 	pushw	x
      000013 88               [ 1]   64 	push	a
      000014 1E 08            [ 2]   65 	ldw	x, (0x08, sp)
      000016 FD               [ 4]   66 	call	(x)
      000017 5B 03            [ 2]   67 	addw	sp, #3
      000019 81               [ 4]   68 	ret
                                     69 ;	../printf_large.c: 149: output_2digits (unsigned char b, bool lower_case, pfn_outputchar output_char, void* p)
                                     70 ;	-----------------------------------------
                                     71 ;	 function output_2digits
                                     72 ;	-----------------------------------------
      00001A                         73 _output_2digits:
                                     74 ;	../printf_large.c: 151: output_digit( b>>4,   lower_case, output_char, p );
      00001A 7B 03            [ 1]   75 	ld	a, (0x03, sp)
      00001C 4E               [ 1]   76 	swap	a
      00001D A4 0F            [ 1]   77 	and	a, #0x0f
      00001F 1E 07            [ 2]   78 	ldw	x, (0x07, sp)
      000021 89               [ 2]   79 	pushw	x
      000022 1E 07            [ 2]   80 	ldw	x, (0x07, sp)
      000024 89               [ 2]   81 	pushw	x
      000025 41               [ 1]   82 	exg	a, xl
      000026 7B 08            [ 1]   83 	ld	a, (0x08, sp)
      000028 41               [ 1]   84 	exg	a, xl
      000029 89               [ 2]   85 	pushw	x
      00002A 5B 01            [ 2]   86 	addw	sp, #1
      00002C 88               [ 1]   87 	push	a
      00002D CDr00r00         [ 4]   88 	call	_output_digit
      000030 5B 06            [ 2]   89 	addw	sp, #6
                                     90 ;	../printf_large.c: 152: output_digit( b&0x0F, lower_case, output_char, p );
      000032 7B 03            [ 1]   91 	ld	a, (0x03, sp)
      000034 A4 0F            [ 1]   92 	and	a, #0x0f
      000036 90 95            [ 1]   93 	ld	yh, a
      000038 1E 07            [ 2]   94 	ldw	x, (0x07, sp)
      00003A 89               [ 2]   95 	pushw	x
      00003B 1E 07            [ 2]   96 	ldw	x, (0x07, sp)
      00003D 89               [ 2]   97 	pushw	x
      00003E 7B 08            [ 1]   98 	ld	a, (0x08, sp)
      000040 88               [ 1]   99 	push	a
      000041 90 9E            [ 1]  100 	ld	a, yh
      000043 88               [ 1]  101 	push	a
      000044 CDr00r00         [ 4]  102 	call	_output_digit
      000047 5B 06            [ 2]  103 	addw	sp, #6
      000049 81               [ 4]  104 	ret
                                    105 ;	../printf_large.c: 168: calculate_digit (value_t _AUTOMEM * value, unsigned char radix)
                                    106 ;	-----------------------------------------
                                    107 ;	 function calculate_digit
                                    108 ;	-----------------------------------------
      00004A                        109 _calculate_digit:
      00004A 52 09            [ 2]  110 	sub	sp, #9
                                    111 ;	../printf_large.c: 170: unsigned long ul = value->ul;
      00004C 16 0C            [ 2]  112 	ldw	y, (0x0c, sp)
      00004E 17 08            [ 2]  113 	ldw	(0x08, sp), y
      000050 1E 08            [ 2]  114 	ldw	x, (0x08, sp)
      000052 E6 03            [ 1]  115 	ld	a, (0x3, x)
      000054 90 97            [ 1]  116 	ld	yl, a
      000056 E6 02            [ 1]  117 	ld	a, (0x2, x)
      000058 FE               [ 2]  118 	ldw	x, (x)
      000059 1F 04            [ 2]  119 	ldw	(0x04, sp), x
      00005B 90 95            [ 1]  120 	ld	yh, a
                                    121 ;	../printf_large.c: 171: unsigned char _AUTOMEM * pb4 = &value->byte[4];
      00005D 1E 08            [ 2]  122 	ldw	x, (0x08, sp)
      00005F 1C 00 04         [ 2]  123 	addw	x, #0x0004
      000062 1F 02            [ 2]  124 	ldw	(0x02, sp), x
                                    125 ;	../printf_large.c: 172: unsigned char i = 32;
      000064 A6 20            [ 1]  126 	ld	a, #0x20
      000066 6B 01            [ 1]  127 	ld	(0x01, sp), a
                                    128 ;	../printf_large.c: 174: do
      000068                        129 00103$:
                                    130 ;	../printf_large.c: 176: *pb4 = (*pb4 << 1) | ((ul >> 31) & 0x01);
      000068 1E 02            [ 2]  131 	ldw	x, (0x02, sp)
      00006A F6               [ 1]  132 	ld	a, (x)
      00006B 48               [ 1]  133 	sll	a
      00006C 95               [ 1]  134 	ld	xh, a
      00006D 7B 04            [ 1]  135 	ld	a, (0x04, sp)
      00006F 48               [ 1]  136 	sll	a
      000070 4F               [ 1]  137 	clr	a
      000071 49               [ 1]  138 	rlc	a
      000072 89               [ 2]  139 	pushw	x
      000073 1A 01            [ 1]  140 	or	a, (1, sp)
      000075 85               [ 2]  141 	popw	x
      000076 1E 02            [ 2]  142 	ldw	x, (0x02, sp)
      000078 F7               [ 1]  143 	ld	(x), a
                                    144 ;	../printf_large.c: 177: ul <<= 1;
      000079 1E 04            [ 2]  145 	ldw	x, (0x04, sp)
      00007B 90 58            [ 2]  146 	sllw	y
      00007D 59               [ 2]  147 	rlcw	x
      00007E 1F 04            [ 2]  148 	ldw	(0x04, sp), x
                                    149 ;	../printf_large.c: 179: if (radix <= *pb4 )
      000080 1E 02            [ 2]  150 	ldw	x, (0x02, sp)
      000082 F6               [ 1]  151 	ld	a, (x)
      000083 11 0E            [ 1]  152 	cp	a, (0x0e, sp)
      000085 25 12            [ 1]  153 	jrc	00104$
                                    154 ;	../printf_large.c: 181: *pb4 -= radix;
      000087 10 0E            [ 1]  155 	sub	a, (0x0e, sp)
      000089 1E 02            [ 2]  156 	ldw	x, (0x02, sp)
      00008B F7               [ 1]  157 	ld	(x), a
                                    158 ;	../printf_large.c: 182: ul |= 1;
      00008C 90 54            [ 2]  159 	srlw	y
      00008E 99               [ 1]  160 	scf
      00008F 90 59            [ 2]  161 	rlcw	y
      000091 7B 05            [ 1]  162 	ld	a, (0x05, sp)
      000093 97               [ 1]  163 	ld	xl, a
      000094 7B 04            [ 1]  164 	ld	a, (0x04, sp)
      000096 95               [ 1]  165 	ld	xh, a
      000097 1F 04            [ 2]  166 	ldw	(0x04, sp), x
      000099                        167 00104$:
                                    168 ;	../printf_large.c: 184: } while (--i);
      000099 7B 01            [ 1]  169 	ld	a, (0x01, sp)
      00009B 4A               [ 1]  170 	dec	a
      00009C 6B 01            [ 1]  171 	ld	(0x01, sp), a
      00009E 4D               [ 1]  172 	tnz	a
      00009F 26 C7            [ 1]  173 	jrne	00103$
                                    174 ;	../printf_large.c: 185: value->ul = ul;
      0000A1 1E 08            [ 2]  175 	ldw	x, (0x08, sp)
      0000A3 EF 02            [ 2]  176 	ldw	(0x2, x), y
      0000A5 16 04            [ 2]  177 	ldw	y, (0x04, sp)
      0000A7 FF               [ 2]  178 	ldw	(x), y
      0000A8 5B 09            [ 2]  179 	addw	sp, #9
      0000AA 81               [ 4]  180 	ret
                                    181 ;	../printf_large.c: 434: _print_format (pfn_outputchar pfn, void* pvoid, const char *format, va_list ap)
                                    182 ;	-----------------------------------------
                                    183 ;	 function _print_format
                                    184 ;	-----------------------------------------
      0000AB                        185 __print_format:
      0000AB 52 88            [ 2]  186 	sub	sp, #136
                                    187 ;	../printf_large.c: 466: charsOutputted = 0;
      0000AD 5F               [ 1]  188 	clrw	x
      0000AE 1F 87            [ 2]  189 	ldw	(0x87, sp), x
                                    190 ;	../printf_large.c: 475: while( c=*format++ )
      0000B0 96               [ 1]  191 	ldw	x, sp
      0000B1 1C 00 0B         [ 2]  192 	addw	x, #11
      0000B4 1F 85            [ 2]  193 	ldw	(0x85, sp), x
      0000B6 AEr06rF2         [ 2]  194 	ldw	x, #___str_0+0
      0000B9 1F 83            [ 2]  195 	ldw	(0x83, sp), x
      0000BB 96               [ 1]  196 	ldw	x, sp
      0000BC 1C 00 06         [ 2]  197 	addw	x, #6
      0000BF 1F 81            [ 2]  198 	ldw	(0x81, sp), x
      0000C1 96               [ 1]  199 	ldw	x, sp
      0000C2 1C 00 0B         [ 2]  200 	addw	x, #11
      0000C5 1F 7F            [ 2]  201 	ldw	(0x7f, sp), x
      0000C7 1E 7F            [ 2]  202 	ldw	x, (0x7f, sp)
      0000C9 1C 00 04         [ 2]  203 	addw	x, #0x0004
      0000CC 1F 7D            [ 2]  204 	ldw	(0x7d, sp), x
      0000CE                        205 00231$:
      0000CE 1E 8F            [ 2]  206 	ldw	x, (0x8f, sp)
      0000D0 F6               [ 1]  207 	ld	a, (x)
      0000D1 5C               [ 2]  208 	incw	x
      0000D2 1F 8F            [ 2]  209 	ldw	(0x8f, sp), x
      0000D4 95               [ 1]  210 	ld	xh, a
      0000D5 4D               [ 1]  211 	tnz	a
      0000D6 26 03            [ 1]  212 	jrne	00550$
      0000D8 CCr06rED         [ 2]  213 	jp	00233$
      0000DB                        214 00550$:
                                    215 ;	../printf_large.c: 477: if ( c=='%' )
      0000DB 9E               [ 1]  216 	ld	a, xh
      0000DC A1 25            [ 1]  217 	cp	a, #0x25
      0000DE 27 03            [ 1]  218 	jreq	00553$
      0000E0 CCr06rDA         [ 2]  219 	jp	00229$
      0000E3                        220 00553$:
                                    221 ;	../printf_large.c: 479: left_justify    = 0;
      0000E3 0F 18            [ 1]  222 	clr	(0x18, sp)
                                    223 ;	../printf_large.c: 480: zero_padding    = 0;
      0000E5 0F 17            [ 1]  224 	clr	(0x17, sp)
                                    225 ;	../printf_large.c: 481: prefix_sign     = 0;
      0000E7 0F 16            [ 1]  226 	clr	(0x16, sp)
                                    227 ;	../printf_large.c: 482: prefix_space    = 0;
      0000E9 0F 15            [ 1]  228 	clr	(0x15, sp)
                                    229 ;	../printf_large.c: 483: signed_argument = 0;
      0000EB 0F 14            [ 1]  230 	clr	(0x14, sp)
                                    231 ;	../printf_large.c: 484: char_argument   = 0;
      0000ED 0F 13            [ 1]  232 	clr	(0x13, sp)
                                    233 ;	../printf_large.c: 485: long_argument   = 0;
      0000EF 0F 12            [ 1]  234 	clr	(0x12, sp)
                                    235 ;	../printf_large.c: 486: float_argument  = 0;
      0000F1 0F 11            [ 1]  236 	clr	(0x11, sp)
                                    237 ;	../printf_large.c: 487: radix           = 0;
      0000F3 0F 09            [ 1]  238 	clr	(0x09, sp)
                                    239 ;	../printf_large.c: 488: width           = 0;
      0000F5 0F 7C            [ 1]  240 	clr	(0x7c, sp)
                                    241 ;	../printf_large.c: 489: decimals        = -1;
      0000F7 A6 FF            [ 1]  242 	ld	a, #0xff
      0000F9 6B 08            [ 1]  243 	ld	(0x08, sp), a
                                    244 ;	../printf_large.c: 491: get_conversion_spec:
      0000FB 16 8F            [ 2]  245 	ldw	y, (0x8f, sp)
      0000FD 17 7A            [ 2]  246 	ldw	(0x7a, sp), y
      0000FF                        247 00101$:
                                    248 ;	../printf_large.c: 493: c = *format++;
      0000FF 1E 7A            [ 2]  249 	ldw	x, (0x7a, sp)
      000101 F6               [ 1]  250 	ld	a, (x)
      000102 1E 7A            [ 2]  251 	ldw	x, (0x7a, sp)
      000104 5C               [ 2]  252 	incw	x
      000105 1F 7A            [ 2]  253 	ldw	(0x7a, sp), x
      000107 16 7A            [ 2]  254 	ldw	y, (0x7a, sp)
      000109 17 8F            [ 2]  255 	ldw	(0x8f, sp), y
      00010B 6B 79            [ 1]  256 	ld	(0x79, sp), a
                                    257 ;	../printf_large.c: 495: if (c=='%')
      00010D 7B 79            [ 1]  258 	ld	a, (0x79, sp)
      00010F A1 25            [ 1]  259 	cp	a, #0x25
      000111 26 12            [ 1]  260 	jrne	00103$
                                    261 ;	../printf_large.c: 497: OUTPUT_CHAR(c, p);
      000113 1E 8D            [ 2]  262 	ldw	x, (0x8d, sp)
      000115 89               [ 2]  263 	pushw	x
      000116 7B 7B            [ 1]  264 	ld	a, (0x7b, sp)
      000118 88               [ 1]  265 	push	a
      000119 1E 8E            [ 2]  266 	ldw	x, (0x8e, sp)
      00011B FD               [ 4]  267 	call	(x)
      00011C 5B 03            [ 2]  268 	addw	sp, #3
      00011E 1E 87            [ 2]  269 	ldw	x, (0x87, sp)
      000120 5C               [ 2]  270 	incw	x
      000121 1F 87            [ 2]  271 	ldw	(0x87, sp), x
                                    272 ;	../printf_large.c: 498: continue;
      000123 20 A9            [ 2]  273 	jra	00231$
      000125                        274 00103$:
                                    275 ;	../printf_large.c: 501: if (isdigit(c))
      000125 7B 79            [ 1]  276 	ld	a, (0x79, sp)
      000127 A1 30            [ 1]  277 	cp	a, #0x30
      000129 25 30            [ 1]  278 	jrc	00110$
      00012B A1 39            [ 1]  279 	cp	a, #0x39
      00012D 22 2C            [ 1]  280 	jrugt	00110$
                                    281 ;	../printf_large.c: 503: if (decimals==-1)
      00012F 7B 08            [ 1]  282 	ld	a, (0x08, sp)
      000131 A1 FF            [ 1]  283 	cp	a, #0xff
      000133 26 17            [ 1]  284 	jrne	00107$
                                    285 ;	../printf_large.c: 505: width = 10*width + c - '0';
      000135 7B 7C            [ 1]  286 	ld	a, (0x7c, sp)
      000137 97               [ 1]  287 	ld	xl, a
      000138 A6 0A            [ 1]  288 	ld	a, #0x0a
      00013A 42               [ 4]  289 	mul	x, a
      00013B 9F               [ 1]  290 	ld	a, xl
      00013C 1B 79            [ 1]  291 	add	a, (0x79, sp)
      00013E A0 30            [ 1]  292 	sub	a, #0x30
      000140 6B 7C            [ 1]  293 	ld	(0x7c, sp), a
                                    294 ;	../printf_large.c: 506: if (width == 0)
      000142 0D 7C            [ 1]  295 	tnz	(0x7c, sp)
      000144 26 B9            [ 1]  296 	jrne	00101$
                                    297 ;	../printf_large.c: 509: zero_padding = 1;
      000146 A6 01            [ 1]  298 	ld	a, #0x01
      000148 6B 17            [ 1]  299 	ld	(0x17, sp), a
      00014A 20 B3            [ 2]  300 	jra	00101$
      00014C                        301 00107$:
                                    302 ;	../printf_large.c: 514: decimals = 10*decimals + c - '0';
      00014C 7B 08            [ 1]  303 	ld	a, (0x08, sp)
      00014E 97               [ 1]  304 	ld	xl, a
      00014F A6 0A            [ 1]  305 	ld	a, #0x0a
      000151 42               [ 4]  306 	mul	x, a
      000152 9F               [ 1]  307 	ld	a, xl
      000153 1B 79            [ 1]  308 	add	a, (0x79, sp)
      000155 A0 30            [ 1]  309 	sub	a, #0x30
      000157 6B 08            [ 1]  310 	ld	(0x08, sp), a
                                    311 ;	../printf_large.c: 516: goto get_conversion_spec;
      000159 20 A4            [ 2]  312 	jra	00101$
      00015B                        313 00110$:
                                    314 ;	../printf_large.c: 519: if (c=='.')
      00015B 7B 79            [ 1]  315 	ld	a, (0x79, sp)
      00015D A1 2E            [ 1]  316 	cp	a, #0x2e
      00015F 26 0A            [ 1]  317 	jrne	00115$
                                    318 ;	../printf_large.c: 521: if (decimals==-1)
      000161 7B 08            [ 1]  319 	ld	a, (0x08, sp)
      000163 A1 FF            [ 1]  320 	cp	a, #0xff
      000165 26 98            [ 1]  321 	jrne	00101$
                                    322 ;	../printf_large.c: 522: decimals=0;
      000167 0F 08            [ 1]  323 	clr	(0x08, sp)
                                    324 ;	../printf_large.c: 525: goto get_conversion_spec;
      000169 20 94            [ 2]  325 	jra	00101$
      00016B                        326 00115$:
                                    327 ;	../printf_large.c: 528: if (islower(c))
      00016B 7B 79            [ 1]  328 	ld	a, (0x79, sp)
      00016D A1 61            [ 1]  329 	cp	a, #0x61
      00016F 25 10            [ 1]  330 	jrc	00117$
      000171 A1 7A            [ 1]  331 	cp	a, #0x7a
      000173 22 0C            [ 1]  332 	jrugt	00117$
                                    333 ;	../printf_large.c: 530: c = toupper(c);
      000175 7B 79            [ 1]  334 	ld	a, (0x79, sp)
      000177 A4 DF            [ 1]  335 	and	a, #0xdf
      000179 6B 79            [ 1]  336 	ld	(0x79, sp), a
                                    337 ;	../printf_large.c: 531: lower_case = 1;
      00017B A6 01            [ 1]  338 	ld	a, #0x01
      00017D 6B 10            [ 1]  339 	ld	(0x10, sp), a
      00017F 20 02            [ 2]  340 	jra	00118$
      000181                        341 00117$:
                                    342 ;	../printf_large.c: 534: lower_case = 0;
      000181 0F 10            [ 1]  343 	clr	(0x10, sp)
      000183                        344 00118$:
                                    345 ;	../printf_large.c: 536: switch( c )
      000183 7B 79            [ 1]  346 	ld	a, (0x79, sp)
      000185 A1 20            [ 1]  347 	cp	a, #0x20
      000187 26 03            [ 1]  348 	jrne	00572$
      000189 CCr02r30         [ 2]  349 	jp	00122$
      00018C                        350 00572$:
      00018C 7B 79            [ 1]  351 	ld	a, (0x79, sp)
      00018E A1 2B            [ 1]  352 	cp	a, #0x2b
      000190 26 03            [ 1]  353 	jrne	00575$
      000192 CCr02r29         [ 2]  354 	jp	00121$
      000195                        355 00575$:
      000195 7B 79            [ 1]  356 	ld	a, (0x79, sp)
      000197 A1 2D            [ 1]  357 	cp	a, #0x2d
      000199 26 03            [ 1]  358 	jrne	00578$
      00019B CCr02r22         [ 2]  359 	jp	00120$
      00019E                        360 00578$:
      00019E 7B 79            [ 1]  361 	ld	a, (0x79, sp)
      0001A0 A1 42            [ 1]  362 	cp	a, #0x42
      0001A2 26 03            [ 1]  363 	jrne	00581$
      0001A4 CCr02r37         [ 2]  364 	jp	00123$
      0001A7                        365 00581$:
      0001A7 7B 79            [ 1]  366 	ld	a, (0x79, sp)
      0001A9 A1 43            [ 1]  367 	cp	a, #0x43
      0001AB 26 03            [ 1]  368 	jrne	00584$
      0001AD CCr02r45         [ 2]  369 	jp	00129$
      0001B0                        370 00584$:
      0001B0 7B 79            [ 1]  371 	ld	a, (0x79, sp)
      0001B2 A1 44            [ 1]  372 	cp	a, #0x44
      0001B4 26 03            [ 1]  373 	jrne	00587$
      0001B6 CCr03r9A         [ 2]  374 	jp	00154$
      0001B9                        375 00587$:
      0001B9 7B 79            [ 1]  376 	ld	a, (0x79, sp)
      0001BB A1 46            [ 1]  377 	cp	a, #0x46
      0001BD 26 03            [ 1]  378 	jrne	00590$
      0001BF CCr03rB6         [ 2]  379 	jp	00158$
      0001C2                        380 00590$:
      0001C2 7B 79            [ 1]  381 	ld	a, (0x79, sp)
      0001C4 A1 48            [ 1]  382 	cp	a, #0x48
      0001C6 26 03            [ 1]  383 	jrne	00593$
      0001C8 CCr00rFF         [ 2]  384 	jp	00101$
      0001CB                        385 00593$:
      0001CB 7B 79            [ 1]  386 	ld	a, (0x79, sp)
      0001CD A1 49            [ 1]  387 	cp	a, #0x49
      0001CF 26 03            [ 1]  388 	jrne	00596$
      0001D1 CCr03r9A         [ 2]  389 	jp	00154$
      0001D4                        390 00596$:
      0001D4 7B 79            [ 1]  391 	ld	a, (0x79, sp)
      0001D6 A1 4A            [ 1]  392 	cp	a, #0x4a
      0001D8 26 03            [ 1]  393 	jrne	00599$
      0001DA CCr00rFF         [ 2]  394 	jp	00101$
      0001DD                        395 00599$:
      0001DD 7B 79            [ 1]  396 	ld	a, (0x79, sp)
      0001DF A1 4C            [ 1]  397 	cp	a, #0x4c
      0001E1 27 5B            [ 1]  398 	jreq	00128$
      0001E3 7B 79            [ 1]  399 	ld	a, (0x79, sp)
      0001E5 A1 4F            [ 1]  400 	cp	a, #0x4f
      0001E7 26 03            [ 1]  401 	jrne	00605$
      0001E9 CCr03rA4         [ 2]  402 	jp	00155$
      0001EC                        403 00605$:
      0001EC 7B 79            [ 1]  404 	ld	a, (0x79, sp)
      0001EE A1 50            [ 1]  405 	cp	a, #0x50
      0001F0 26 03            [ 1]  406 	jrne	00608$
      0001F2 CCr03r2E         [ 2]  407 	jp	00152$
      0001F5                        408 00608$:
      0001F5 7B 79            [ 1]  409 	ld	a, (0x79, sp)
      0001F7 A1 53            [ 1]  410 	cp	a, #0x53
      0001F9 27 72            [ 1]  411 	jreq	00133$
      0001FB 7B 79            [ 1]  412 	ld	a, (0x79, sp)
      0001FD A1 54            [ 1]  413 	cp	a, #0x54
      0001FF 26 03            [ 1]  414 	jrne	00614$
      000201 CCr00rFF         [ 2]  415 	jp	00101$
      000204                        416 00614$:
      000204 7B 79            [ 1]  417 	ld	a, (0x79, sp)
      000206 A1 55            [ 1]  418 	cp	a, #0x55
      000208 26 03            [ 1]  419 	jrne	00617$
      00020A CCr03rAA         [ 2]  420 	jp	00156$
      00020D                        421 00617$:
      00020D 7B 79            [ 1]  422 	ld	a, (0x79, sp)
      00020F A1 58            [ 1]  423 	cp	a, #0x58
      000211 26 03            [ 1]  424 	jrne	00620$
      000213 CCr03rB0         [ 2]  425 	jp	00157$
      000216                        426 00620$:
      000216 7B 79            [ 1]  427 	ld	a, (0x79, sp)
      000218 A1 5A            [ 1]  428 	cp	a, #0x5a
      00021A 26 03            [ 1]  429 	jrne	00623$
      00021C CCr00rFF         [ 2]  430 	jp	00101$
      00021F                        431 00623$:
      00021F CCr03rBC         [ 2]  432 	jp	00159$
                                    433 ;	../printf_large.c: 538: case '-':
      000222                        434 00120$:
                                    435 ;	../printf_large.c: 539: left_justify = 1;
      000222 A6 01            [ 1]  436 	ld	a, #0x01
      000224 6B 18            [ 1]  437 	ld	(0x18, sp), a
                                    438 ;	../printf_large.c: 540: goto get_conversion_spec;
      000226 CCr00rFF         [ 2]  439 	jp	00101$
                                    440 ;	../printf_large.c: 541: case '+':
      000229                        441 00121$:
                                    442 ;	../printf_large.c: 542: prefix_sign = 1;
      000229 A6 01            [ 1]  443 	ld	a, #0x01
      00022B 6B 16            [ 1]  444 	ld	(0x16, sp), a
                                    445 ;	../printf_large.c: 543: goto get_conversion_spec;
      00022D CCr00rFF         [ 2]  446 	jp	00101$
                                    447 ;	../printf_large.c: 544: case ' ':
      000230                        448 00122$:
                                    449 ;	../printf_large.c: 545: prefix_space = 1;
      000230 A6 01            [ 1]  450 	ld	a, #0x01
      000232 6B 15            [ 1]  451 	ld	(0x15, sp), a
                                    452 ;	../printf_large.c: 546: goto get_conversion_spec;
      000234 CCr00rFF         [ 2]  453 	jp	00101$
                                    454 ;	../printf_large.c: 547: case 'B': /* byte */
      000237                        455 00123$:
                                    456 ;	../printf_large.c: 548: char_argument = 1;
      000237 A6 01            [ 1]  457 	ld	a, #0x01
      000239 6B 13            [ 1]  458 	ld	(0x13, sp), a
                                    459 ;	../printf_large.c: 549: goto get_conversion_spec;
      00023B CCr00rFF         [ 2]  460 	jp	00101$
                                    461 ;	../printf_large.c: 556: case 'L': /* long */
      00023E                        462 00128$:
                                    463 ;	../printf_large.c: 557: long_argument = 1;
      00023E A6 01            [ 1]  464 	ld	a, #0x01
      000240 6B 12            [ 1]  465 	ld	(0x12, sp), a
                                    466 ;	../printf_large.c: 558: goto get_conversion_spec;
      000242 CCr00rFF         [ 2]  467 	jp	00101$
                                    468 ;	../printf_large.c: 560: case 'C':
      000245                        469 00129$:
                                    470 ;	../printf_large.c: 561: if( char_argument )
      000245 0D 13            [ 1]  471 	tnz	(0x13, sp)
      000247 27 09            [ 1]  472 	jreq	00131$
                                    473 ;	../printf_large.c: 562: c = va_arg(ap,char);
      000249 1E 91            [ 2]  474 	ldw	x, (0x91, sp)
      00024B 5C               [ 2]  475 	incw	x
      00024C 1F 91            [ 2]  476 	ldw	(0x91, sp), x
      00024E 5A               [ 2]  477 	decw	x
      00024F F6               [ 1]  478 	ld	a, (x)
      000250 20 0A            [ 2]  479 	jra	00132$
      000252                        480 00131$:
                                    481 ;	../printf_large.c: 564: c = va_arg(ap,int);
      000252 1E 91            [ 2]  482 	ldw	x, (0x91, sp)
      000254 5C               [ 2]  483 	incw	x
      000255 5C               [ 2]  484 	incw	x
      000256 1F 91            [ 2]  485 	ldw	(0x91, sp), x
      000258 5A               [ 2]  486 	decw	x
      000259 5A               [ 2]  487 	decw	x
      00025A FE               [ 2]  488 	ldw	x, (x)
      00025B 9F               [ 1]  489 	ld	a, xl
      00025C                        490 00132$:
                                    491 ;	../printf_large.c: 565: OUTPUT_CHAR( c, p );
      00025C 1E 8D            [ 2]  492 	ldw	x, (0x8d, sp)
      00025E 89               [ 2]  493 	pushw	x
      00025F 88               [ 1]  494 	push	a
      000260 1E 8E            [ 2]  495 	ldw	x, (0x8e, sp)
      000262 FD               [ 4]  496 	call	(x)
      000263 5B 03            [ 2]  497 	addw	sp, #3
      000265 1E 87            [ 2]  498 	ldw	x, (0x87, sp)
      000267 5C               [ 2]  499 	incw	x
      000268 1F 87            [ 2]  500 	ldw	(0x87, sp), x
                                    501 ;	../printf_large.c: 566: break;
      00026A CCr03rD2         [ 2]  502 	jp	00160$
                                    503 ;	../printf_large.c: 568: case 'S':
      00026D                        504 00133$:
                                    505 ;	../printf_large.c: 569: PTR = va_arg(ap,ptr_t);
      00026D 96               [ 1]  506 	ldw	x, sp
      00026E 1C 00 0B         [ 2]  507 	addw	x, #11
      000271 1F 77            [ 2]  508 	ldw	(0x77, sp), x
      000273 1E 91            [ 2]  509 	ldw	x, (0x91, sp)
      000275 5C               [ 2]  510 	incw	x
      000276 5C               [ 2]  511 	incw	x
      000277 1F 91            [ 2]  512 	ldw	(0x91, sp), x
      000279 5A               [ 2]  513 	decw	x
      00027A 5A               [ 2]  514 	decw	x
      00027B FE               [ 2]  515 	ldw	x, (x)
      00027C 16 77            [ 2]  516 	ldw	y, (0x77, sp)
      00027E 90 FF            [ 2]  517 	ldw	(y), x
                                    518 ;	../printf_large.c: 582: length = strlen(PTR);
      000280 89               [ 2]  519 	pushw	x
      000281 CDr00r00         [ 4]  520 	call	_strlen
      000284 5B 02            [ 2]  521 	addw	sp, #2
      000286 9F               [ 1]  522 	ld	a, xl
      000287 6B 76            [ 1]  523 	ld	(0x76, sp), a
                                    524 ;	../printf_large.c: 584: if ( decimals == -1 )
      000289 7B 08            [ 1]  525 	ld	a, (0x08, sp)
      00028B A1 FF            [ 1]  526 	cp	a, #0xff
      00028D 26 04            [ 1]  527 	jrne	00135$
                                    528 ;	../printf_large.c: 586: decimals = length;
      00028F 7B 76            [ 1]  529 	ld	a, (0x76, sp)
      000291 6B 08            [ 1]  530 	ld	(0x08, sp), a
      000293                        531 00135$:
                                    532 ;	../printf_large.c: 588: if ( ( !left_justify ) && (length < width) )
      000293 0D 18            [ 1]  533 	tnz	(0x18, sp)
      000295 26 2E            [ 1]  534 	jrne	00277$
      000297 7B 76            [ 1]  535 	ld	a, (0x76, sp)
      000299 11 7C            [ 1]  536 	cp	a, (0x7c, sp)
      00029B 24 28            [ 1]  537 	jrnc	00277$
                                    538 ;	../printf_large.c: 590: width -= length;
      00029D 7B 7C            [ 1]  539 	ld	a, (0x7c, sp)
      00029F 10 76            [ 1]  540 	sub	a, (0x76, sp)
                                    541 ;	../printf_large.c: 591: while( width-- != 0 )
      0002A1 16 87            [ 2]  542 	ldw	y, (0x87, sp)
      0002A3 17 74            [ 2]  543 	ldw	(0x74, sp), y
      0002A5                        544 00136$:
      0002A5 97               [ 1]  545 	ld	xl, a
      0002A6 4A               [ 1]  546 	dec	a
      0002A7 41               [ 1]  547 	exg	a, xl
      0002A8 4D               [ 1]  548 	tnz	a
      0002A9 41               [ 1]  549 	exg	a, xl
      0002AA 27 13            [ 1]  550 	jreq	00312$
                                    551 ;	../printf_large.c: 593: OUTPUT_CHAR( ' ', p );
      0002AC 88               [ 1]  552 	push	a
      0002AD 1E 8E            [ 2]  553 	ldw	x, (0x8e, sp)
      0002AF 89               [ 2]  554 	pushw	x
      0002B0 4B 20            [ 1]  555 	push	#0x20
      0002B2 1E 8F            [ 2]  556 	ldw	x, (0x8f, sp)
      0002B4 FD               [ 4]  557 	call	(x)
      0002B5 5B 03            [ 2]  558 	addw	sp, #3
      0002B7 84               [ 1]  559 	pop	a
      0002B8 1E 74            [ 2]  560 	ldw	x, (0x74, sp)
      0002BA 5C               [ 2]  561 	incw	x
      0002BB 1F 74            [ 2]  562 	ldw	(0x74, sp), x
      0002BD 20 E6            [ 2]  563 	jra	00136$
                                    564 ;	../printf_large.c: 597: while ( (c = *PTR)  && (decimals-- > 0))
      0002BF                        565 00312$:
      0002BF 16 74            [ 2]  566 	ldw	y, (0x74, sp)
      0002C1 17 87            [ 2]  567 	ldw	(0x87, sp), y
      0002C3 6B 7C            [ 1]  568 	ld	(0x7c, sp), a
      0002C5                        569 00277$:
      0002C5 7B 08            [ 1]  570 	ld	a, (0x08, sp)
      0002C7 6B 73            [ 1]  571 	ld	(0x73, sp), a
      0002C9 16 87            [ 2]  572 	ldw	y, (0x87, sp)
      0002CB 17 71            [ 2]  573 	ldw	(0x71, sp), y
      0002CD                        574 00143$:
      0002CD 1E 77            [ 2]  575 	ldw	x, (0x77, sp)
      0002CF FE               [ 2]  576 	ldw	x, (x)
      0002D0 F6               [ 1]  577 	ld	a, (x)
      0002D1 6B 70            [ 1]  578 	ld	(0x70, sp), a
      0002D3 4D               [ 1]  579 	tnz	a
      0002D4 27 22            [ 1]  580 	jreq	00313$
      0002D6 7B 73            [ 1]  581 	ld	a, (0x73, sp)
      0002D8 0A 73            [ 1]  582 	dec	(0x73, sp)
      0002DA A1 00            [ 1]  583 	cp	a, #0x00
      0002DC 2D 1A            [ 1]  584 	jrsle	00313$
                                    585 ;	../printf_large.c: 599: OUTPUT_CHAR( c, p );
      0002DE 1E 8D            [ 2]  586 	ldw	x, (0x8d, sp)
      0002E0 89               [ 2]  587 	pushw	x
      0002E1 7B 72            [ 1]  588 	ld	a, (0x72, sp)
      0002E3 88               [ 1]  589 	push	a
      0002E4 1E 8E            [ 2]  590 	ldw	x, (0x8e, sp)
      0002E6 FD               [ 4]  591 	call	(x)
      0002E7 5B 03            [ 2]  592 	addw	sp, #3
      0002E9 1E 71            [ 2]  593 	ldw	x, (0x71, sp)
      0002EB 5C               [ 2]  594 	incw	x
      0002EC 1F 71            [ 2]  595 	ldw	(0x71, sp), x
                                    596 ;	../printf_large.c: 600: PTR++;
      0002EE 1E 77            [ 2]  597 	ldw	x, (0x77, sp)
      0002F0 FE               [ 2]  598 	ldw	x, (x)
      0002F1 5C               [ 2]  599 	incw	x
      0002F2 16 77            [ 2]  600 	ldw	y, (0x77, sp)
      0002F4 90 FF            [ 2]  601 	ldw	(y), x
      0002F6 20 D5            [ 2]  602 	jra	00143$
      0002F8                        603 00313$:
      0002F8 16 71            [ 2]  604 	ldw	y, (0x71, sp)
      0002FA 17 87            [ 2]  605 	ldw	(0x87, sp), y
                                    606 ;	../printf_large.c: 603: if ( left_justify && (length < width))
      0002FC 0D 18            [ 1]  607 	tnz	(0x18, sp)
      0002FE 26 03            [ 1]  608 	jrne	00634$
      000300 CCr03rD2         [ 2]  609 	jp	00160$
      000303                        610 00634$:
      000303 7B 76            [ 1]  611 	ld	a, (0x76, sp)
      000305 11 7C            [ 1]  612 	cp	a, (0x7c, sp)
      000307 25 03            [ 1]  613 	jrc	00635$
      000309 CCr03rD2         [ 2]  614 	jp	00160$
      00030C                        615 00635$:
                                    616 ;	../printf_large.c: 605: width -= length;
      00030C 7B 7C            [ 1]  617 	ld	a, (0x7c, sp)
      00030E 10 76            [ 1]  618 	sub	a, (0x76, sp)
                                    619 ;	../printf_large.c: 606: while( width-- != 0 )
      000310 1E 71            [ 2]  620 	ldw	x, (0x71, sp)
      000312                        621 00146$:
      000312 6B 6F            [ 1]  622 	ld	(0x6f, sp), a
      000314 4A               [ 1]  623 	dec	a
      000315 0D 6F            [ 1]  624 	tnz	(0x6f, sp)
      000317 26 03            [ 1]  625 	jrne	00636$
      000319 CCr03rCE         [ 2]  626 	jp	00314$
      00031C                        627 00636$:
                                    628 ;	../printf_large.c: 608: OUTPUT_CHAR( ' ', p );
      00031C 88               [ 1]  629 	push	a
      00031D 89               [ 2]  630 	pushw	x
      00031E 16 90            [ 2]  631 	ldw	y, (0x90, sp)
      000320 90 89            [ 2]  632 	pushw	y
      000322 4B 20            [ 1]  633 	push	#0x20
      000324 1E 91            [ 2]  634 	ldw	x, (0x91, sp)
      000326 FD               [ 4]  635 	call	(x)
      000327 5B 03            [ 2]  636 	addw	sp, #3
      000329 85               [ 2]  637 	popw	x
      00032A 84               [ 1]  638 	pop	a
      00032B 5C               [ 2]  639 	incw	x
      00032C 20 E4            [ 2]  640 	jra	00146$
                                    641 ;	../printf_large.c: 613: case 'P':
      00032E                        642 00152$:
                                    643 ;	../printf_large.c: 614: PTR = va_arg(ap,ptr_t);
      00032E 96               [ 1]  644 	ldw	x, sp
      00032F 1C 00 0B         [ 2]  645 	addw	x, #11
      000332 16 91            [ 2]  646 	ldw	y, (0x91, sp)
      000334 72 A9 00 02      [ 2]  647 	addw	y, #0x0002
      000338 17 91            [ 2]  648 	ldw	(0x91, sp), y
      00033A 72 A2 00 02      [ 2]  649 	subw	y, #0x0002
      00033E 90 FE            [ 2]  650 	ldw	y, (y)
      000340 FF               [ 2]  651 	ldw	(x), y
                                    652 ;	../printf_large.c: 658: OUTPUT_CHAR('0', p);
      000341 1E 8D            [ 2]  653 	ldw	x, (0x8d, sp)
      000343 89               [ 2]  654 	pushw	x
      000344 4B 30            [ 1]  655 	push	#0x30
      000346 1E 8E            [ 2]  656 	ldw	x, (0x8e, sp)
      000348 FD               [ 4]  657 	call	(x)
      000349 5B 03            [ 2]  658 	addw	sp, #3
      00034B 1E 87            [ 2]  659 	ldw	x, (0x87, sp)
      00034D 5C               [ 2]  660 	incw	x
                                    661 ;	../printf_large.c: 659: OUTPUT_CHAR('x', p);
      00034E 89               [ 2]  662 	pushw	x
      00034F 16 8F            [ 2]  663 	ldw	y, (0x8f, sp)
      000351 90 89            [ 2]  664 	pushw	y
      000353 4B 78            [ 1]  665 	push	#0x78
      000355 1E 90            [ 2]  666 	ldw	x, (0x90, sp)
      000357 FD               [ 4]  667 	call	(x)
      000358 5B 03            [ 2]  668 	addw	sp, #3
      00035A 85               [ 2]  669 	popw	x
      00035B 5C               [ 2]  670 	incw	x
      00035C 1F 6D            [ 2]  671 	ldw	(0x6d, sp), x
                                    672 ;	../printf_large.c: 660: OUTPUT_2DIGITS( value.byte[1] );
      00035E 96               [ 1]  673 	ldw	x, sp
      00035F 1C 00 0C         [ 2]  674 	addw	x, #12
      000362 F6               [ 1]  675 	ld	a, (x)
      000363 90 95            [ 1]  676 	ld	yh, a
      000365 1E 8D            [ 2]  677 	ldw	x, (0x8d, sp)
      000367 89               [ 2]  678 	pushw	x
      000368 1E 8D            [ 2]  679 	ldw	x, (0x8d, sp)
      00036A 89               [ 2]  680 	pushw	x
      00036B 7B 14            [ 1]  681 	ld	a, (0x14, sp)
      00036D 88               [ 1]  682 	push	a
      00036E 90 9E            [ 1]  683 	ld	a, yh
      000370 88               [ 1]  684 	push	a
      000371 CDr00r1A         [ 4]  685 	call	_output_2digits
      000374 5B 06            [ 2]  686 	addw	sp, #6
      000376 1E 6D            [ 2]  687 	ldw	x, (0x6d, sp)
      000378 5C               [ 2]  688 	incw	x
      000379 5C               [ 2]  689 	incw	x
      00037A 1F 6B            [ 2]  690 	ldw	(0x6b, sp), x
                                    691 ;	../printf_large.c: 661: OUTPUT_2DIGITS( value.byte[0] );
      00037C 1E 85            [ 2]  692 	ldw	x, (0x85, sp)
      00037E F6               [ 1]  693 	ld	a, (x)
      00037F 90 95            [ 1]  694 	ld	yh, a
      000381 1E 8D            [ 2]  695 	ldw	x, (0x8d, sp)
      000383 89               [ 2]  696 	pushw	x
      000384 1E 8D            [ 2]  697 	ldw	x, (0x8d, sp)
      000386 89               [ 2]  698 	pushw	x
      000387 7B 14            [ 1]  699 	ld	a, (0x14, sp)
      000389 88               [ 1]  700 	push	a
      00038A 90 9E            [ 1]  701 	ld	a, yh
      00038C 88               [ 1]  702 	push	a
      00038D CDr00r1A         [ 4]  703 	call	_output_2digits
      000390 5B 06            [ 2]  704 	addw	sp, #6
      000392 1E 6B            [ 2]  705 	ldw	x, (0x6b, sp)
      000394 5C               [ 2]  706 	incw	x
      000395 5C               [ 2]  707 	incw	x
      000396 1F 87            [ 2]  708 	ldw	(0x87, sp), x
                                    709 ;	../printf_large.c: 663: break;
      000398 20 38            [ 2]  710 	jra	00160$
                                    711 ;	../printf_large.c: 666: case 'I':
      00039A                        712 00154$:
                                    713 ;	../printf_large.c: 667: signed_argument = 1;
      00039A A6 01            [ 1]  714 	ld	a, #0x01
      00039C 6B 14            [ 1]  715 	ld	(0x14, sp), a
                                    716 ;	../printf_large.c: 668: radix = 10;
      00039E A6 0A            [ 1]  717 	ld	a, #0x0a
      0003A0 6B 09            [ 1]  718 	ld	(0x09, sp), a
                                    719 ;	../printf_large.c: 669: break;
      0003A2 20 2E            [ 2]  720 	jra	00160$
                                    721 ;	../printf_large.c: 671: case 'O':
      0003A4                        722 00155$:
                                    723 ;	../printf_large.c: 672: radix = 8;
      0003A4 A6 08            [ 1]  724 	ld	a, #0x08
      0003A6 6B 09            [ 1]  725 	ld	(0x09, sp), a
                                    726 ;	../printf_large.c: 673: break;
      0003A8 20 28            [ 2]  727 	jra	00160$
                                    728 ;	../printf_large.c: 675: case 'U':
      0003AA                        729 00156$:
                                    730 ;	../printf_large.c: 676: radix = 10;
      0003AA A6 0A            [ 1]  731 	ld	a, #0x0a
      0003AC 6B 09            [ 1]  732 	ld	(0x09, sp), a
                                    733 ;	../printf_large.c: 677: break;
      0003AE 20 22            [ 2]  734 	jra	00160$
                                    735 ;	../printf_large.c: 679: case 'X':
      0003B0                        736 00157$:
                                    737 ;	../printf_large.c: 680: radix = 16;
      0003B0 A6 10            [ 1]  738 	ld	a, #0x10
      0003B2 6B 09            [ 1]  739 	ld	(0x09, sp), a
                                    740 ;	../printf_large.c: 681: break;
      0003B4 20 1C            [ 2]  741 	jra	00160$
                                    742 ;	../printf_large.c: 683: case 'F':
      0003B6                        743 00158$:
                                    744 ;	../printf_large.c: 684: float_argument=1;
      0003B6 A6 01            [ 1]  745 	ld	a, #0x01
      0003B8 6B 11            [ 1]  746 	ld	(0x11, sp), a
                                    747 ;	../printf_large.c: 685: break;
      0003BA 20 16            [ 2]  748 	jra	00160$
                                    749 ;	../printf_large.c: 687: default:
      0003BC                        750 00159$:
                                    751 ;	../printf_large.c: 689: OUTPUT_CHAR( c, p );
      0003BC 1E 8D            [ 2]  752 	ldw	x, (0x8d, sp)
      0003BE 89               [ 2]  753 	pushw	x
      0003BF 7B 7B            [ 1]  754 	ld	a, (0x7b, sp)
      0003C1 88               [ 1]  755 	push	a
      0003C2 1E 8E            [ 2]  756 	ldw	x, (0x8e, sp)
      0003C4 FD               [ 4]  757 	call	(x)
      0003C5 5B 03            [ 2]  758 	addw	sp, #3
      0003C7 1E 87            [ 2]  759 	ldw	x, (0x87, sp)
      0003C9 5C               [ 2]  760 	incw	x
      0003CA 1F 87            [ 2]  761 	ldw	(0x87, sp), x
                                    762 ;	../printf_large.c: 872: return charsOutputted;
      0003CC 20 04            [ 2]  763 	jra	00160$
                                    764 ;	../printf_large.c: 691: }
      0003CE                        765 00314$:
      0003CE 1F 87            [ 2]  766 	ldw	(0x87, sp), x
      0003D0 6B 7C            [ 1]  767 	ld	(0x7c, sp), a
      0003D2                        768 00160$:
                                    769 ;	../printf_large.c: 693: if (float_argument)
      0003D2 0D 11            [ 1]  770 	tnz	(0x11, sp)
      0003D4 27 60            [ 1]  771 	jreq	00226$
                                    772 ;	../printf_large.c: 695: value.f = va_arg(ap, float);
      0003D6 96               [ 1]  773 	ldw	x, sp
      0003D7 1C 00 0B         [ 2]  774 	addw	x, #11
      0003DA 1F 69            [ 2]  775 	ldw	(0x69, sp), x
      0003DC 1E 91            [ 2]  776 	ldw	x, (0x91, sp)
      0003DE 1C 00 04         [ 2]  777 	addw	x, #0x0004
      0003E1 1F 91            [ 2]  778 	ldw	(0x91, sp), x
      0003E3 1D 00 04         [ 2]  779 	subw	x, #0x0004
      0003E6 E6 03            [ 1]  780 	ld	a, (0x3, x)
      0003E8 90 97            [ 1]  781 	ld	yl, a
      0003EA E6 02            [ 1]  782 	ld	a, (0x2, x)
      0003EC 90 95            [ 1]  783 	ld	yh, a
      0003EE FE               [ 2]  784 	ldw	x, (x)
      0003EF 1F 65            [ 2]  785 	ldw	(0x65, sp), x
      0003F1 1E 69            [ 2]  786 	ldw	x, (0x69, sp)
      0003F3 EF 02            [ 2]  787 	ldw	(0x2, x), y
      0003F5 16 65            [ 2]  788 	ldw	y, (0x65, sp)
      0003F7 FF               [ 2]  789 	ldw	(x), y
                                    790 ;	../printf_large.c: 697: PTR="<NO FLOAT>";
      0003F8 96               [ 1]  791 	ldw	x, sp
      0003F9 1C 00 0B         [ 2]  792 	addw	x, #11
      0003FC 1F 63            [ 2]  793 	ldw	(0x63, sp), x
      0003FE 16 83            [ 2]  794 	ldw	y, (0x83, sp)
      000400 1E 63            [ 2]  795 	ldw	x, (0x63, sp)
      000402 FF               [ 2]  796 	ldw	(x), y
                                    797 ;	../printf_large.c: 698: while (c=*PTR++)
      000403 16 87            [ 2]  798 	ldw	y, (0x87, sp)
      000405 17 61            [ 2]  799 	ldw	(0x61, sp), y
      000407                        800 00161$:
      000407 1E 63            [ 2]  801 	ldw	x, (0x63, sp)
      000409 FE               [ 2]  802 	ldw	x, (x)
      00040A 1F 5F            [ 2]  803 	ldw	(0x5f, sp), x
      00040C 1E 5F            [ 2]  804 	ldw	x, (0x5f, sp)
      00040E 5C               [ 2]  805 	incw	x
      00040F 1F 5D            [ 2]  806 	ldw	(0x5d, sp), x
      000411 1E 63            [ 2]  807 	ldw	x, (0x63, sp)
      000413 16 5D            [ 2]  808 	ldw	y, (0x5d, sp)
      000415 FF               [ 2]  809 	ldw	(x), y
      000416 1E 5F            [ 2]  810 	ldw	x, (0x5f, sp)
      000418 F6               [ 1]  811 	ld	a, (x)
      000419 95               [ 1]  812 	ld	xh, a
      00041A 4D               [ 1]  813 	tnz	a
      00041B 26 03            [ 1]  814 	jrne	00638$
      00041D CCr00rCE         [ 2]  815 	jp	00231$
      000420                        816 00638$:
                                    817 ;	../printf_large.c: 700: OUTPUT_CHAR (c, p);
      000420 16 8D            [ 2]  818 	ldw	y, (0x8d, sp)
      000422 90 89            [ 2]  819 	pushw	y
      000424 9E               [ 1]  820 	ld	a, xh
      000425 88               [ 1]  821 	push	a
      000426 1E 8E            [ 2]  822 	ldw	x, (0x8e, sp)
      000428 FD               [ 4]  823 	call	(x)
      000429 5B 03            [ 2]  824 	addw	sp, #3
      00042B 1E 61            [ 2]  825 	ldw	x, (0x61, sp)
      00042D 5C               [ 2]  826 	incw	x
      00042E 1F 61            [ 2]  827 	ldw	(0x61, sp), x
      000430 16 61            [ 2]  828 	ldw	y, (0x61, sp)
      000432 17 87            [ 2]  829 	ldw	(0x87, sp), y
      000434 20 D1            [ 2]  830 	jra	00161$
      000436                        831 00226$:
                                    832 ;	../printf_large.c: 718: else if (radix != 0)
      000436 0D 09            [ 1]  833 	tnz	(0x09, sp)
      000438 26 03            [ 1]  834 	jrne	00639$
      00043A CCr00rCE         [ 2]  835 	jp	00231$
      00043D                        836 00639$:
                                    837 ;	../printf_large.c: 723: unsigned char MEM_SPACE_BUF_PP *pstore = &store[5];
      00043D 16 81            [ 2]  838 	ldw	y, (0x81, sp)
      00043F 17 5B            [ 2]  839 	ldw	(0x5b, sp), y
                                    840 ;	../printf_large.c: 726: if (char_argument)
      000441 0D 13            [ 1]  841 	tnz	(0x13, sp)
      000443 27 3D            [ 1]  842 	jreq	00172$
                                    843 ;	../printf_large.c: 728: value.l = va_arg(ap, char);
      000445 96               [ 1]  844 	ldw	x, sp
      000446 1C 00 0B         [ 2]  845 	addw	x, #11
      000449 1F 59            [ 2]  846 	ldw	(0x59, sp), x
      00044B 1E 91            [ 2]  847 	ldw	x, (0x91, sp)
      00044D 5C               [ 2]  848 	incw	x
      00044E 1F 91            [ 2]  849 	ldw	(0x91, sp), x
      000450 5A               [ 2]  850 	decw	x
      000451 F6               [ 1]  851 	ld	a, (x)
      000452 97               [ 1]  852 	ld	xl, a
      000453 49               [ 1]  853 	rlc	a
      000454 4F               [ 1]  854 	clr	a
      000455 A2 00            [ 1]  855 	sbc	a, #0x00
      000457 95               [ 1]  856 	ld	xh, a
      000458 6B 56            [ 1]  857 	ld	(0x56, sp), a
      00045A 6B 55            [ 1]  858 	ld	(0x55, sp), a
      00045C 16 59            [ 2]  859 	ldw	y, (0x59, sp)
      00045E 90 EF 02         [ 2]  860 	ldw	(0x2, y), x
      000461 1E 55            [ 2]  861 	ldw	x, (0x55, sp)
      000463 90 FF            [ 2]  862 	ldw	(y), x
                                    863 ;	../printf_large.c: 729: if (!signed_argument)
      000465 0D 14            [ 1]  864 	tnz	(0x14, sp)
      000467 26 7C            [ 1]  865 	jrne	00173$
                                    866 ;	../printf_large.c: 731: value.l &= 0xFF;
      000469 1E 59            [ 2]  867 	ldw	x, (0x59, sp)
      00046B E6 03            [ 1]  868 	ld	a, (0x3, x)
      00046D 90 97            [ 1]  869 	ld	yl, a
      00046F E6 02            [ 1]  870 	ld	a, (0x2, x)
      000471 FE               [ 2]  871 	ldw	x, (x)
      000472 4F               [ 1]  872 	clr	a
      000473 90 95            [ 1]  873 	ld	yh, a
      000475 0F 52            [ 1]  874 	clr	(0x52, sp)
      000477 0F 51            [ 1]  875 	clr	(0x51, sp)
      000479 1E 59            [ 2]  876 	ldw	x, (0x59, sp)
      00047B EF 02            [ 2]  877 	ldw	(0x2, x), y
      00047D 16 51            [ 2]  878 	ldw	y, (0x51, sp)
      00047F FF               [ 2]  879 	ldw	(x), y
      000480 20 63            [ 2]  880 	jra	00173$
      000482                        881 00172$:
                                    882 ;	../printf_large.c: 734: else if (long_argument)
      000482 0D 12            [ 1]  883 	tnz	(0x12, sp)
      000484 27 24            [ 1]  884 	jreq	00169$
                                    885 ;	../printf_large.c: 736: value.l = va_arg(ap, long);
      000486 96               [ 1]  886 	ldw	x, sp
      000487 1C 00 0B         [ 2]  887 	addw	x, #11
      00048A 1F 4F            [ 2]  888 	ldw	(0x4f, sp), x
      00048C 1E 91            [ 2]  889 	ldw	x, (0x91, sp)
      00048E 1C 00 04         [ 2]  890 	addw	x, #0x0004
      000491 1F 91            [ 2]  891 	ldw	(0x91, sp), x
      000493 1D 00 04         [ 2]  892 	subw	x, #0x0004
      000496 E6 03            [ 1]  893 	ld	a, (0x3, x)
      000498 90 97            [ 1]  894 	ld	yl, a
      00049A E6 02            [ 1]  895 	ld	a, (0x2, x)
      00049C 90 95            [ 1]  896 	ld	yh, a
      00049E FE               [ 2]  897 	ldw	x, (x)
      00049F 1F 4B            [ 2]  898 	ldw	(0x4b, sp), x
      0004A1 1E 4F            [ 2]  899 	ldw	x, (0x4f, sp)
      0004A3 EF 02            [ 2]  900 	ldw	(0x2, x), y
      0004A5 16 4B            [ 2]  901 	ldw	y, (0x4b, sp)
      0004A7 FF               [ 2]  902 	ldw	(x), y
      0004A8 20 3B            [ 2]  903 	jra	00173$
      0004AA                        904 00169$:
                                    905 ;	../printf_large.c: 740: value.l = va_arg(ap, int);
      0004AA 96               [ 1]  906 	ldw	x, sp
      0004AB 1C 00 0B         [ 2]  907 	addw	x, #11
      0004AE 16 91            [ 2]  908 	ldw	y, (0x91, sp)
      0004B0 72 A9 00 02      [ 2]  909 	addw	y, #0x0002
      0004B4 17 91            [ 2]  910 	ldw	(0x91, sp), y
      0004B6 72 A2 00 02      [ 2]  911 	subw	y, #0x0002
      0004BA 90 FE            [ 2]  912 	ldw	y, (y)
      0004BC 90 9E            [ 1]  913 	ld	a, yh
      0004BE 49               [ 1]  914 	rlc	a
      0004BF 4F               [ 1]  915 	clr	a
      0004C0 A2 00            [ 1]  916 	sbc	a, #0x00
      0004C2 6B 48            [ 1]  917 	ld	(0x48, sp), a
      0004C4 6B 47            [ 1]  918 	ld	(0x47, sp), a
      0004C6 EF 02            [ 2]  919 	ldw	(0x2, x), y
      0004C8 16 47            [ 2]  920 	ldw	y, (0x47, sp)
      0004CA FF               [ 2]  921 	ldw	(x), y
                                    922 ;	../printf_large.c: 741: if (!signed_argument)
      0004CB 0D 14            [ 1]  923 	tnz	(0x14, sp)
      0004CD 26 16            [ 1]  924 	jrne	00173$
                                    925 ;	../printf_large.c: 743: value.l &= 0xFFFF;
      0004CF E6 03            [ 1]  926 	ld	a, (0x3, x)
      0004D1 90 97            [ 1]  927 	ld	yl, a
      0004D3 E6 02            [ 1]  928 	ld	a, (0x2, x)
      0004D5 90 95            [ 1]  929 	ld	yh, a
      0004D7 E6 01            [ 1]  930 	ld	a, (0x1, x)
      0004D9 6B 44            [ 1]  931 	ld	(0x44, sp), a
      0004DB F6               [ 1]  932 	ld	a, (x)
      0004DC 0F 40            [ 1]  933 	clr	(0x40, sp)
      0004DE 0F 3F            [ 1]  934 	clr	(0x3f, sp)
      0004E0 EF 02            [ 2]  935 	ldw	(0x2, x), y
      0004E2 16 3F            [ 2]  936 	ldw	y, (0x3f, sp)
      0004E4 FF               [ 2]  937 	ldw	(x), y
      0004E5                        938 00173$:
                                    939 ;	../printf_large.c: 747: if ( signed_argument )
      0004E5 0D 14            [ 1]  940 	tnz	(0x14, sp)
      0004E7 27 36            [ 1]  941 	jreq	00178$
                                    942 ;	../printf_large.c: 749: if (value.l < 0)
      0004E9 96               [ 1]  943 	ldw	x, sp
      0004EA 1C 00 0B         [ 2]  944 	addw	x, #11
      0004ED 1F 3D            [ 2]  945 	ldw	(0x3d, sp), x
      0004EF 1E 3D            [ 2]  946 	ldw	x, (0x3d, sp)
      0004F1 E6 03            [ 1]  947 	ld	a, (0x3, x)
      0004F3 6B 3C            [ 1]  948 	ld	(0x3c, sp), a
      0004F5 E6 02            [ 1]  949 	ld	a, (0x2, x)
      0004F7 FE               [ 2]  950 	ldw	x, (x)
      0004F8 5D               [ 2]  951 	tnzw	x
      0004F9 2A 22            [ 1]  952 	jrpl	00175$
                                    953 ;	../printf_large.c: 750: value.l = -value.l;
      0004FB 1E 3D            [ 2]  954 	ldw	x, (0x3d, sp)
      0004FD E6 03            [ 1]  955 	ld	a, (0x3, x)
      0004FF 90 97            [ 1]  956 	ld	yl, a
      000501 E6 02            [ 1]  957 	ld	a, (0x2, x)
      000503 FE               [ 2]  958 	ldw	x, (x)
      000504 1F 35            [ 2]  959 	ldw	(0x35, sp), x
      000506 90 95            [ 1]  960 	ld	yh, a
      000508 90 50            [ 2]  961 	negw	y
      00050A 4F               [ 1]  962 	clr	a
      00050B 12 36            [ 1]  963 	sbc	a, (0x36, sp)
      00050D 6B 32            [ 1]  964 	ld	(0x32, sp), a
      00050F 4F               [ 1]  965 	clr	a
      000510 12 35            [ 1]  966 	sbc	a, (0x35, sp)
      000512 6B 31            [ 1]  967 	ld	(0x31, sp), a
      000514 1E 3D            [ 2]  968 	ldw	x, (0x3d, sp)
      000516 EF 02            [ 2]  969 	ldw	(0x2, x), y
      000518 16 31            [ 2]  970 	ldw	y, (0x31, sp)
      00051A FF               [ 2]  971 	ldw	(x), y
      00051B 20 02            [ 2]  972 	jra	00178$
      00051D                        973 00175$:
                                    974 ;	../printf_large.c: 752: signed_argument = 0;
      00051D 0F 14            [ 1]  975 	clr	(0x14, sp)
      00051F                        976 00178$:
                                    977 ;	../printf_large.c: 756: lsd = 1;
      00051F A6 01            [ 1]  978 	ld	a, #0x01
      000521 6B 0A            [ 1]  979 	ld	(0x0a, sp), a
                                    980 ;	../printf_large.c: 758: do {
      000523 16 5B            [ 2]  981 	ldw	y, (0x5b, sp)
      000525 17 2F            [ 2]  982 	ldw	(0x2f, sp), y
      000527 0F 07            [ 1]  983 	clr	(0x07, sp)
      000529                        984 00182$:
                                    985 ;	../printf_large.c: 759: value.byte[4] = 0;
      000529 96               [ 1]  986 	ldw	x, sp
      00052A 1C 00 0F         [ 2]  987 	addw	x, #15
      00052D 7F               [ 1]  988 	clr	(x)
                                    989 ;	../printf_large.c: 761: calculate_digit(&value, radix);
      00052E 1E 7F            [ 2]  990 	ldw	x, (0x7f, sp)
      000530 7B 09            [ 1]  991 	ld	a, (0x09, sp)
      000532 88               [ 1]  992 	push	a
      000533 89               [ 2]  993 	pushw	x
      000534 CDr00r4A         [ 4]  994 	call	_calculate_digit
      000537 5B 03            [ 2]  995 	addw	sp, #3
                                    996 ;	../printf_large.c: 765: if (!lsd)
      000539 0D 0A            [ 1]  997 	tnz	(0x0a, sp)
      00053B 26 21            [ 1]  998 	jrne	00180$
                                    999 ;	../printf_large.c: 767: *pstore = (value.byte[4] << 4) | (value.byte[4] >> 4) | *pstore;
      00053D 1E 7D            [ 2] 1000 	ldw	x, (0x7d, sp)
      00053F F6               [ 1] 1001 	ld	a, (x)
      000540 4E               [ 1] 1002 	swap	a
      000541 A4 F0            [ 1] 1003 	and	a, #0xf0
      000543 6B 2E            [ 1] 1004 	ld	(0x2e, sp), a
      000545 1E 7D            [ 2] 1005 	ldw	x, (0x7d, sp)
      000547 F6               [ 1] 1006 	ld	a, (x)
      000548 4E               [ 1] 1007 	swap	a
      000549 A4 0F            [ 1] 1008 	and	a, #0x0f
      00054B 1A 2E            [ 1] 1009 	or	a, (0x2e, sp)
      00054D 6B 2D            [ 1] 1010 	ld	(0x2d, sp), a
      00054F 1E 2F            [ 2] 1011 	ldw	x, (0x2f, sp)
      000551 F6               [ 1] 1012 	ld	a, (x)
      000552 1A 2D            [ 1] 1013 	or	a, (0x2d, sp)
      000554 1E 2F            [ 2] 1014 	ldw	x, (0x2f, sp)
      000556 F7               [ 1] 1015 	ld	(x), a
                                   1016 ;	../printf_large.c: 768: pstore--;
      000557 1E 2F            [ 2] 1017 	ldw	x, (0x2f, sp)
      000559 5A               [ 2] 1018 	decw	x
      00055A 1F 2F            [ 2] 1019 	ldw	(0x2f, sp), x
      00055C 20 06            [ 2] 1020 	jra	00181$
      00055E                       1021 00180$:
                                   1022 ;	../printf_large.c: 772: *pstore = value.byte[4];
      00055E 1E 7D            [ 2] 1023 	ldw	x, (0x7d, sp)
      000560 F6               [ 1] 1024 	ld	a, (x)
      000561 1E 2F            [ 2] 1025 	ldw	x, (0x2f, sp)
      000563 F7               [ 1] 1026 	ld	(x), a
      000564                       1027 00181$:
                                   1028 ;	../printf_large.c: 774: length++;
      000564 0C 07            [ 1] 1029 	inc	(0x07, sp)
                                   1030 ;	../printf_large.c: 775: lsd = !lsd;
      000566 7B 0A            [ 1] 1031 	ld	a, (0x0a, sp)
      000568 A0 01            [ 1] 1032 	sub	a, #0x01
      00056A 4F               [ 1] 1033 	clr	a
      00056B 49               [ 1] 1034 	rlc	a
      00056C 6B 0A            [ 1] 1035 	ld	(0x0a, sp), a
                                   1036 ;	../printf_large.c: 776: } while( value.ul );
      00056E 1E 7F            [ 2] 1037 	ldw	x, (0x7f, sp)
      000570 E6 03            [ 1] 1038 	ld	a, (0x3, x)
      000572 6B 2C            [ 1] 1039 	ld	(0x2c, sp), a
      000574 E6 02            [ 1] 1040 	ld	a, (0x2, x)
      000576 6B 2B            [ 1] 1041 	ld	(0x2b, sp), a
      000578 FE               [ 2] 1042 	ldw	x, (x)
      000579 16 2B            [ 2] 1043 	ldw	y, (0x2b, sp)
      00057B 26 AC            [ 1] 1044 	jrne	00182$
      00057D 5D               [ 2] 1045 	tnzw	x
      00057E 26 A9            [ 1] 1046 	jrne	00182$
                                   1047 ;	../printf_large.c: 778: if (width == 0)
      000580 16 2F            [ 2] 1048 	ldw	y, (0x2f, sp)
      000582 17 27            [ 2] 1049 	ldw	(0x27, sp), y
      000584 7B 07            [ 1] 1050 	ld	a, (0x07, sp)
      000586 6B 26            [ 1] 1051 	ld	(0x26, sp), a
      000588 0D 7C            [ 1] 1052 	tnz	(0x7c, sp)
      00058A 26 04            [ 1] 1053 	jrne	00186$
                                   1054 ;	../printf_large.c: 783: width = 1;
      00058C A6 01            [ 1] 1055 	ld	a, #0x01
      00058E 6B 7C            [ 1] 1056 	ld	(0x7c, sp), a
      000590                       1057 00186$:
                                   1058 ;	../printf_large.c: 787: if (!zero_padding && !left_justify)
      000590 0D 17            [ 1] 1059 	tnz	(0x17, sp)
      000592 26 2D            [ 1] 1060 	jrne	00191$
      000594 0D 18            [ 1] 1061 	tnz	(0x18, sp)
      000596 26 29            [ 1] 1062 	jrne	00191$
                                   1063 ;	../printf_large.c: 789: while ( width > (unsigned char) (length+1) )
      000598 7B 26            [ 1] 1064 	ld	a, (0x26, sp)
      00059A 4C               [ 1] 1065 	inc	a
      00059B 6B 25            [ 1] 1066 	ld	(0x25, sp), a
      00059D 16 87            [ 2] 1067 	ldw	y, (0x87, sp)
      00059F 17 23            [ 2] 1068 	ldw	(0x23, sp), y
      0005A1 7B 7C            [ 1] 1069 	ld	a, (0x7c, sp)
      0005A3                       1070 00187$:
      0005A3 11 25            [ 1] 1071 	cp	a, (0x25, sp)
      0005A5 23 14            [ 2] 1072 	jrule	00316$
                                   1073 ;	../printf_large.c: 791: OUTPUT_CHAR( ' ', p );
      0005A7 88               [ 1] 1074 	push	a
      0005A8 1E 8E            [ 2] 1075 	ldw	x, (0x8e, sp)
      0005AA 89               [ 2] 1076 	pushw	x
      0005AB 4B 20            [ 1] 1077 	push	#0x20
      0005AD 1E 8F            [ 2] 1078 	ldw	x, (0x8f, sp)
      0005AF FD               [ 4] 1079 	call	(x)
      0005B0 5B 03            [ 2] 1080 	addw	sp, #3
      0005B2 84               [ 1] 1081 	pop	a
      0005B3 1E 23            [ 2] 1082 	ldw	x, (0x23, sp)
      0005B5 5C               [ 2] 1083 	incw	x
      0005B6 1F 23            [ 2] 1084 	ldw	(0x23, sp), x
                                   1085 ;	../printf_large.c: 792: width--;
      0005B8 4A               [ 1] 1086 	dec	a
      0005B9 20 E8            [ 2] 1087 	jra	00187$
      0005BB                       1088 00316$:
      0005BB 16 23            [ 2] 1089 	ldw	y, (0x23, sp)
      0005BD 17 87            [ 2] 1090 	ldw	(0x87, sp), y
      0005BF 6B 7C            [ 1] 1091 	ld	(0x7c, sp), a
      0005C1                       1092 00191$:
                                   1093 ;	../printf_large.c: 796: if (signed_argument) // this now means the original value was negative
      0005C1 0D 14            [ 1] 1094 	tnz	(0x14, sp)
      0005C3 27 16            [ 1] 1095 	jreq	00201$
                                   1096 ;	../printf_large.c: 798: OUTPUT_CHAR( '-', p );
      0005C5 1E 8D            [ 2] 1097 	ldw	x, (0x8d, sp)
      0005C7 89               [ 2] 1098 	pushw	x
      0005C8 4B 2D            [ 1] 1099 	push	#0x2d
      0005CA 1E 8E            [ 2] 1100 	ldw	x, (0x8e, sp)
      0005CC FD               [ 4] 1101 	call	(x)
      0005CD 5B 03            [ 2] 1102 	addw	sp, #3
      0005CF 1E 87            [ 2] 1103 	ldw	x, (0x87, sp)
      0005D1 5C               [ 2] 1104 	incw	x
      0005D2 1F 87            [ 2] 1105 	ldw	(0x87, sp), x
                                   1106 ;	../printf_large.c: 800: width--;
      0005D4 7B 7C            [ 1] 1107 	ld	a, (0x7c, sp)
      0005D6 4A               [ 1] 1108 	dec	a
      0005D7 6B 7C            [ 1] 1109 	ld	(0x7c, sp), a
      0005D9 20 36            [ 2] 1110 	jra	00202$
      0005DB                       1111 00201$:
                                   1112 ;	../printf_large.c: 802: else if (length != 0)
      0005DB 0D 26            [ 1] 1113 	tnz	(0x26, sp)
      0005DD 27 32            [ 1] 1114 	jreq	00202$
                                   1115 ;	../printf_large.c: 805: if (prefix_sign)
      0005DF 0D 16            [ 1] 1116 	tnz	(0x16, sp)
      0005E1 27 16            [ 1] 1117 	jreq	00196$
                                   1118 ;	../printf_large.c: 807: OUTPUT_CHAR( '+', p );
      0005E3 1E 8D            [ 2] 1119 	ldw	x, (0x8d, sp)
      0005E5 89               [ 2] 1120 	pushw	x
      0005E6 4B 2B            [ 1] 1121 	push	#0x2b
      0005E8 1E 8E            [ 2] 1122 	ldw	x, (0x8e, sp)
      0005EA FD               [ 4] 1123 	call	(x)
      0005EB 5B 03            [ 2] 1124 	addw	sp, #3
      0005ED 1E 87            [ 2] 1125 	ldw	x, (0x87, sp)
      0005EF 5C               [ 2] 1126 	incw	x
      0005F0 1F 87            [ 2] 1127 	ldw	(0x87, sp), x
                                   1128 ;	../printf_large.c: 809: width--;
      0005F2 7B 7C            [ 1] 1129 	ld	a, (0x7c, sp)
      0005F4 4A               [ 1] 1130 	dec	a
      0005F5 6B 7C            [ 1] 1131 	ld	(0x7c, sp), a
      0005F7 20 18            [ 2] 1132 	jra	00202$
      0005F9                       1133 00196$:
                                   1134 ;	../printf_large.c: 811: else if (prefix_space)
      0005F9 0D 15            [ 1] 1135 	tnz	(0x15, sp)
      0005FB 27 14            [ 1] 1136 	jreq	00202$
                                   1137 ;	../printf_large.c: 813: OUTPUT_CHAR( ' ', p );
      0005FD 1E 8D            [ 2] 1138 	ldw	x, (0x8d, sp)
      0005FF 89               [ 2] 1139 	pushw	x
      000600 4B 20            [ 1] 1140 	push	#0x20
      000602 1E 8E            [ 2] 1141 	ldw	x, (0x8e, sp)
      000604 FD               [ 4] 1142 	call	(x)
      000605 5B 03            [ 2] 1143 	addw	sp, #3
      000607 1E 87            [ 2] 1144 	ldw	x, (0x87, sp)
      000609 5C               [ 2] 1145 	incw	x
      00060A 1F 87            [ 2] 1146 	ldw	(0x87, sp), x
                                   1147 ;	../printf_large.c: 815: width--;
      00060C 7B 7C            [ 1] 1148 	ld	a, (0x7c, sp)
      00060E 4A               [ 1] 1149 	dec	a
      00060F 6B 7C            [ 1] 1150 	ld	(0x7c, sp), a
      000611                       1151 00202$:
                                   1152 ;	../printf_large.c: 820: if (!left_justify)
      000611 0D 18            [ 1] 1153 	tnz	(0x18, sp)
      000613 26 2A            [ 1] 1154 	jrne	00210$
                                   1155 ;	../printf_large.c: 822: while ( width-- > length )
      000615 16 87            [ 2] 1156 	ldw	y, (0x87, sp)
      000617 17 21            [ 2] 1157 	ldw	(0x21, sp), y
      000619 7B 7C            [ 1] 1158 	ld	a, (0x7c, sp)
      00061B 6B 20            [ 1] 1159 	ld	(0x20, sp), a
      00061D                       1160 00203$:
      00061D 7B 20            [ 1] 1161 	ld	a, (0x20, sp)
      00061F 0A 20            [ 1] 1162 	dec	(0x20, sp)
      000621 11 26            [ 1] 1163 	cp	a, (0x26, sp)
      000623 23 2C            [ 2] 1164 	jrule	00317$
                                   1165 ;	../printf_large.c: 824: OUTPUT_CHAR( zero_padding ? '0' : ' ', p );
      000625 0D 17            [ 1] 1166 	tnz	(0x17, sp)
      000627 27 04            [ 1] 1167 	jreq	00236$
      000629 A6 30            [ 1] 1168 	ld	a, #0x30
      00062B 20 02            [ 2] 1169 	jra	00237$
      00062D                       1170 00236$:
      00062D A6 20            [ 1] 1171 	ld	a, #0x20
      00062F                       1172 00237$:
      00062F 1E 8D            [ 2] 1173 	ldw	x, (0x8d, sp)
      000631 89               [ 2] 1174 	pushw	x
      000632 88               [ 1] 1175 	push	a
      000633 1E 8E            [ 2] 1176 	ldw	x, (0x8e, sp)
      000635 FD               [ 4] 1177 	call	(x)
      000636 5B 03            [ 2] 1178 	addw	sp, #3
      000638 1E 21            [ 2] 1179 	ldw	x, (0x21, sp)
      00063A 5C               [ 2] 1180 	incw	x
      00063B 1F 21            [ 2] 1181 	ldw	(0x21, sp), x
      00063D 20 DE            [ 2] 1182 	jra	00203$
      00063F                       1183 00210$:
                                   1184 ;	../printf_large.c: 830: if (width > length)
      00063F 7B 7C            [ 1] 1185 	ld	a, (0x7c, sp)
      000641 11 26            [ 1] 1186 	cp	a, (0x26, sp)
      000643 23 08            [ 2] 1187 	jrule	00207$
                                   1188 ;	../printf_large.c: 831: width -= length;
      000645 7B 7C            [ 1] 1189 	ld	a, (0x7c, sp)
      000647 10 26            [ 1] 1190 	sub	a, (0x26, sp)
      000649 6B 1F            [ 1] 1191 	ld	(0x1f, sp), a
      00064B 20 0C            [ 2] 1192 	jra	00309$
      00064D                       1193 00207$:
                                   1194 ;	../printf_large.c: 833: width = 0;
      00064D 0F 1F            [ 1] 1195 	clr	(0x1f, sp)
                                   1196 ;	../printf_large.c: 872: return charsOutputted;
      00064F 20 08            [ 2] 1197 	jra	00309$
                                   1198 ;	../printf_large.c: 837: while( length-- )
      000651                       1199 00317$:
      000651 16 21            [ 2] 1200 	ldw	y, (0x21, sp)
      000653 17 87            [ 2] 1201 	ldw	(0x87, sp), y
      000655 7B 20            [ 1] 1202 	ld	a, (0x20, sp)
      000657 6B 1F            [ 1] 1203 	ld	(0x1f, sp), a
      000659                       1204 00309$:
      000659 16 27            [ 2] 1205 	ldw	y, (0x27, sp)
      00065B 17 1D            [ 2] 1206 	ldw	(0x1d, sp), y
      00065D 16 87            [ 2] 1207 	ldw	y, (0x87, sp)
      00065F 17 1B            [ 2] 1208 	ldw	(0x1b, sp), y
      000661 7B 26            [ 1] 1209 	ld	a, (0x26, sp)
      000663 6B 1A            [ 1] 1210 	ld	(0x1a, sp), a
      000665                       1211 00215$:
      000665 7B 1A            [ 1] 1212 	ld	a, (0x1a, sp)
      000667 0A 1A            [ 1] 1213 	dec	(0x1a, sp)
      000669 4D               [ 1] 1214 	tnz	a
      00066A 27 41            [ 1] 1215 	jreq	00318$
                                   1216 ;	../printf_large.c: 839: lsd = !lsd;
      00066C 7B 0A            [ 1] 1217 	ld	a, (0x0a, sp)
      00066E A0 01            [ 1] 1218 	sub	a, #0x01
      000670 4F               [ 1] 1219 	clr	a
      000671 49               [ 1] 1220 	rlc	a
      000672 6B 0A            [ 1] 1221 	ld	(0x0a, sp), a
                                   1222 ;	../printf_large.c: 840: if (!lsd)
      000674 0D 0A            [ 1] 1223 	tnz	(0x0a, sp)
      000676 26 10            [ 1] 1224 	jrne	00213$
                                   1225 ;	../printf_large.c: 842: pstore++;
      000678 1E 1D            [ 2] 1226 	ldw	x, (0x1d, sp)
      00067A 5C               [ 2] 1227 	incw	x
      00067B 1F 1D            [ 2] 1228 	ldw	(0x1d, sp), x
                                   1229 ;	../printf_large.c: 843: value.byte[4] = *pstore >> 4;
      00067D 1E 1D            [ 2] 1230 	ldw	x, (0x1d, sp)
      00067F F6               [ 1] 1231 	ld	a, (x)
      000680 4E               [ 1] 1232 	swap	a
      000681 A4 0F            [ 1] 1233 	and	a, #0x0f
      000683 1E 7D            [ 2] 1234 	ldw	x, (0x7d, sp)
      000685 F7               [ 1] 1235 	ld	(x), a
      000686 20 08            [ 2] 1236 	jra	00214$
      000688                       1237 00213$:
                                   1238 ;	../printf_large.c: 847: value.byte[4] = *pstore & 0x0F;
      000688 1E 1D            [ 2] 1239 	ldw	x, (0x1d, sp)
      00068A F6               [ 1] 1240 	ld	a, (x)
      00068B A4 0F            [ 1] 1241 	and	a, #0x0f
      00068D 1E 7D            [ 2] 1242 	ldw	x, (0x7d, sp)
      00068F F7               [ 1] 1243 	ld	(x), a
      000690                       1244 00214$:
                                   1245 ;	../printf_large.c: 850: output_digit( value.byte[4], lower_case, output_char, p );
      000690 1E 7D            [ 2] 1246 	ldw	x, (0x7d, sp)
      000692 F6               [ 1] 1247 	ld	a, (x)
      000693 90 95            [ 1] 1248 	ld	yh, a
      000695 1E 8D            [ 2] 1249 	ldw	x, (0x8d, sp)
      000697 89               [ 2] 1250 	pushw	x
      000698 1E 8D            [ 2] 1251 	ldw	x, (0x8d, sp)
      00069A 89               [ 2] 1252 	pushw	x
      00069B 7B 14            [ 1] 1253 	ld	a, (0x14, sp)
      00069D 88               [ 1] 1254 	push	a
      00069E 90 9E            [ 1] 1255 	ld	a, yh
      0006A0 88               [ 1] 1256 	push	a
      0006A1 CDr00r00         [ 4] 1257 	call	_output_digit
      0006A4 5B 06            [ 2] 1258 	addw	sp, #6
                                   1259 ;	../printf_large.c: 851: charsOutputted++;
      0006A6 1E 1B            [ 2] 1260 	ldw	x, (0x1b, sp)
      0006A8 5C               [ 2] 1261 	incw	x
      0006A9 1F 1B            [ 2] 1262 	ldw	(0x1b, sp), x
      0006AB 20 B8            [ 2] 1263 	jra	00215$
      0006AD                       1264 00318$:
      0006AD 16 1B            [ 2] 1265 	ldw	y, (0x1b, sp)
      0006AF 17 87            [ 2] 1266 	ldw	(0x87, sp), y
                                   1267 ;	../printf_large.c: 856: if (left_justify)
      0006B1 0D 18            [ 1] 1268 	tnz	(0x18, sp)
      0006B3 26 03            [ 1] 1269 	jrne	00663$
      0006B5 CCr00rCE         [ 2] 1270 	jp	00231$
      0006B8                       1271 00663$:
                                   1272 ;	../printf_large.c: 858: while (width-- > 0)
      0006B8 1E 1B            [ 2] 1273 	ldw	x, (0x1b, sp)
      0006BA 7B 1F            [ 1] 1274 	ld	a, (0x1f, sp)
      0006BC                       1275 00218$:
      0006BC 6B 19            [ 1] 1276 	ld	(0x19, sp), a
      0006BE 4A               [ 1] 1277 	dec	a
      0006BF 0D 19            [ 1] 1278 	tnz	(0x19, sp)
      0006C1 26 03            [ 1] 1279 	jrne	00664$
      0006C3 CCr00rCE         [ 2] 1280 	jp	00231$
      0006C6                       1281 00664$:
                                   1282 ;	../printf_large.c: 860: OUTPUT_CHAR(' ', p);
      0006C6 88               [ 1] 1283 	push	a
      0006C7 89               [ 2] 1284 	pushw	x
      0006C8 16 90            [ 2] 1285 	ldw	y, (0x90, sp)
      0006CA 90 89            [ 2] 1286 	pushw	y
      0006CC 4B 20            [ 1] 1287 	push	#0x20
      0006CE 1E 91            [ 2] 1288 	ldw	x, (0x91, sp)
      0006D0 FD               [ 4] 1289 	call	(x)
      0006D1 5B 03            [ 2] 1290 	addw	sp, #3
      0006D3 85               [ 2] 1291 	popw	x
      0006D4 84               [ 1] 1292 	pop	a
      0006D5 5C               [ 2] 1293 	incw	x
      0006D6 1F 87            [ 2] 1294 	ldw	(0x87, sp), x
      0006D8 20 E2            [ 2] 1295 	jra	00218$
      0006DA                       1296 00229$:
                                   1297 ;	../printf_large.c: 868: OUTPUT_CHAR( c, p );
      0006DA 16 8D            [ 2] 1298 	ldw	y, (0x8d, sp)
      0006DC 90 89            [ 2] 1299 	pushw	y
      0006DE 9E               [ 1] 1300 	ld	a, xh
      0006DF 88               [ 1] 1301 	push	a
      0006E0 1E 8E            [ 2] 1302 	ldw	x, (0x8e, sp)
      0006E2 FD               [ 4] 1303 	call	(x)
      0006E3 5B 03            [ 2] 1304 	addw	sp, #3
      0006E5 1E 87            [ 2] 1305 	ldw	x, (0x87, sp)
      0006E7 5C               [ 2] 1306 	incw	x
      0006E8 1F 87            [ 2] 1307 	ldw	(0x87, sp), x
      0006EA CCr00rCE         [ 2] 1308 	jp	00231$
      0006ED                       1309 00233$:
                                   1310 ;	../printf_large.c: 872: return charsOutputted;
      0006ED 1E 87            [ 2] 1311 	ldw	x, (0x87, sp)
      0006EF 5B 88            [ 2] 1312 	addw	sp, #136
      0006F1 81               [ 4] 1313 	ret
                                   1314 	.area CODE
      0006F2                       1315 ___str_0:
      0006F2 3C 4E 4F 20 46 4C 4F  1316 	.ascii "<NO FLOAT>"
             41 54 3E
      0006FC 00                    1317 	.db 0x00
                                   1318 	.area INITIALIZER
                                   1319 	.area CABS (ABS)
